
notmain.elf:     file format elf32-littlearm


Disassembly of section .text:

00008000 <jsmn_parse>:
    8000:	e92d4ff0 	push	{r4, r5, r6, r7, r8, r9, sl, fp, lr}
    8004:	e5904000 	ldr	r4, [r0]
    8008:	e1540002 	cmp	r4, r2
    800c:	e1a0c000 	mov	ip, r0
    8010:	e24dd00c 	sub	sp, sp, #12
    8014:	e5900004 	ldr	r0, [r0, #4]
    8018:	2a000075 	bcs	81f4 <jsmn_parse+0x1f4>
    801c:	e1a0a000 	mov	sl, r0
    8020:	e2838004 	add	r8, r3, #4
    8024:	e283b008 	add	fp, r3, #8
    8028:	e7d10004 	ldrb	r0, [r1, r4]
    802c:	e3500000 	cmp	r0, #0
    8030:	0a00006e 	beq	81f0 <jsmn_parse+0x1f0>
    8034:	e350003a 	cmp	r0, #58	; 0x3a
    8038:	8a000081 	bhi	8244 <jsmn_parse+0x244>
    803c:	e3500008 	cmp	r0, #8
    8040:	9a000035 	bls	811c <jsmn_parse+0x11c>
    8044:	e2400009 	sub	r0, r0, #9
    8048:	e3500031 	cmp	r0, #49	; 0x31
    804c:	979ff100 	ldrls	pc, [pc, r0, lsl #2]
    8050:	ea000031 	b	811c <jsmn_parse+0x11c>
    8054:	00008264 	.word	0x00008264
    8058:	00008264 	.word	0x00008264
    805c:	0000811c 	.word	0x0000811c
    8060:	0000811c 	.word	0x0000811c
    8064:	00008264 	.word	0x00008264
    8068:	0000811c 	.word	0x0000811c
    806c:	0000811c 	.word	0x0000811c
    8070:	0000811c 	.word	0x0000811c
    8074:	0000811c 	.word	0x0000811c
    8078:	0000811c 	.word	0x0000811c
    807c:	0000811c 	.word	0x0000811c
    8080:	0000811c 	.word	0x0000811c
    8084:	0000811c 	.word	0x0000811c
    8088:	0000811c 	.word	0x0000811c
    808c:	0000811c 	.word	0x0000811c
    8090:	0000811c 	.word	0x0000811c
    8094:	0000811c 	.word	0x0000811c
    8098:	0000811c 	.word	0x0000811c
    809c:	0000811c 	.word	0x0000811c
    80a0:	0000811c 	.word	0x0000811c
    80a4:	0000811c 	.word	0x0000811c
    80a8:	0000811c 	.word	0x0000811c
    80ac:	0000811c 	.word	0x0000811c
    80b0:	00008264 	.word	0x00008264
    80b4:	0000811c 	.word	0x0000811c
    80b8:	00008294 	.word	0x00008294
    80bc:	0000811c 	.word	0x0000811c
    80c0:	0000811c 	.word	0x0000811c
    80c4:	0000811c 	.word	0x0000811c
    80c8:	0000811c 	.word	0x0000811c
    80cc:	0000811c 	.word	0x0000811c
    80d0:	0000811c 	.word	0x0000811c
    80d4:	0000811c 	.word	0x0000811c
    80d8:	0000811c 	.word	0x0000811c
    80dc:	0000811c 	.word	0x0000811c
    80e0:	000083c8 	.word	0x000083c8
    80e4:	0000811c 	.word	0x0000811c
    80e8:	0000811c 	.word	0x0000811c
    80ec:	0000811c 	.word	0x0000811c
    80f0:	0000811c 	.word	0x0000811c
    80f4:	0000811c 	.word	0x0000811c
    80f8:	0000811c 	.word	0x0000811c
    80fc:	0000811c 	.word	0x0000811c
    8100:	0000811c 	.word	0x0000811c
    8104:	0000811c 	.word	0x0000811c
    8108:	0000811c 	.word	0x0000811c
    810c:	0000811c 	.word	0x0000811c
    8110:	0000811c 	.word	0x0000811c
    8114:	0000811c 	.word	0x0000811c
    8118:	0000827c 	.word	0x0000827c
    811c:	e59c5000 	ldr	r5, [ip]
    8120:	e1550002 	cmp	r5, r2
    8124:	2a000015 	bcs	8180 <jsmn_parse+0x180>
    8128:	e2456001 	sub	r6, r5, #1
    812c:	e0816006 	add	r6, r1, r6
    8130:	ea000008 	b	8158 <jsmn_parse+0x158>
    8134:	e3500008 	cmp	r0, #8
    8138:	8a0000d3 	bhi	848c <jsmn_parse+0x48c>
    813c:	e2400020 	sub	r0, r0, #32
    8140:	e350005e 	cmp	r0, #94	; 0x5e
    8144:	e2855001 	add	r5, r5, #1
    8148:	8a000090 	bhi	8390 <jsmn_parse+0x390>
    814c:	e1520005 	cmp	r2, r5
    8150:	e58c5000 	str	r5, [ip]
    8154:	0a000009 	beq	8180 <jsmn_parse+0x180>
    8158:	e5f60001 	ldrb	r0, [r6, #1]!
    815c:	e3500000 	cmp	r0, #0
    8160:	e200e0df 	and	lr, r0, #223	; 0xdf
    8164:	0a000005 	beq	8180 <jsmn_parse+0x180>
    8168:	e350002c 	cmp	r0, #44	; 0x2c
    816c:	9afffff0 	bls	8134 <jsmn_parse+0x134>
    8170:	e35e005d 	cmp	lr, #93	; 0x5d
    8174:	0a000001 	beq	8180 <jsmn_parse+0x180>
    8178:	e350003a 	cmp	r0, #58	; 0x3a
    817c:	1affffee 	bne	813c <jsmn_parse+0x13c>
    8180:	e3530000 	cmp	r3, #0
    8184:	01a04005 	moveq	r4, r5
    8188:	028aa001 	addeq	sl, sl, #1
    818c:	0a000036 	beq	826c <jsmn_parse+0x26c>
    8190:	e59c0004 	ldr	r0, [ip, #4]
    8194:	e59de030 	ldr	lr, [sp, #48]	; 0x30
    8198:	e15e0000 	cmp	lr, r0
    819c:	9a000144 	bls	86b4 <jsmn_parse+0x6b4>
    81a0:	e2806001 	add	r6, r0, #1
    81a4:	e58c6004 	str	r6, [ip, #4]
    81a8:	e3a06000 	mov	r6, #0
    81ac:	e083e200 	add	lr, r3, r0, lsl #4
    81b0:	e58e600c 	str	r6, [lr, #12]
    81b4:	e3a06008 	mov	r6, #8
    81b8:	e7c36200 	strb	r6, [r3, r0, lsl #4]
    81bc:	e59c0008 	ldr	r0, [ip, #8]
    81c0:	e3700001 	cmn	r0, #1
    81c4:	e98e0030 	stmib	lr, {r4, r5}
    81c8:	11a04005 	movne	r4, r5
    81cc:	01a04005 	moveq	r4, r5
    81d0:	10830200 	addne	r0, r3, r0, lsl #4
    81d4:	1590e00c 	ldrne	lr, [r0, #12]
    81d8:	128ee001 	addne	lr, lr, #1
    81dc:	1580e00c 	strne	lr, [r0, #12]
    81e0:	e1520004 	cmp	r2, r4
    81e4:	e58c4000 	str	r4, [ip]
    81e8:	e28aa001 	add	sl, sl, #1
    81ec:	8affff8d 	bhi	8028 <jsmn_parse+0x28>
    81f0:	e1a0000a 	mov	r0, sl
    81f4:	e3530000 	cmp	r3, #0
    81f8:	0a000066 	beq	8398 <jsmn_parse+0x398>
    81fc:	e59c2004 	ldr	r2, [ip, #4]
    8200:	e2522001 	subs	r2, r2, #1
    8204:	4a000063 	bmi	8398 <jsmn_parse+0x398>
    8208:	e283c004 	add	ip, r3, #4
    820c:	e2833008 	add	r3, r3, #8
    8210:	ea000001 	b	821c <jsmn_parse+0x21c>
    8214:	e2522001 	subs	r2, r2, #1
    8218:	3a00005e 	bcc	8398 <jsmn_parse+0x398>
    821c:	e79c1202 	ldr	r1, [ip, r2, lsl #4]
    8220:	e3710001 	cmn	r1, #1
    8224:	0afffffa 	beq	8214 <jsmn_parse+0x214>
    8228:	e7931202 	ldr	r1, [r3, r2, lsl #4]
    822c:	e3710001 	cmn	r1, #1
    8230:	1afffff7 	bne	8214 <jsmn_parse+0x214>
    8234:	e3e00002 	mvn	r0, #2
    8238:	e28dd00c 	add	sp, sp, #12
    823c:	e8bd4ff0 	pop	{r4, r5, r6, r7, r8, r9, sl, fp, lr}
    8240:	e12fff1e 	bx	lr
    8244:	e350007b 	cmp	r0, #123	; 0x7b
    8248:	0a0000d0 	beq	8590 <jsmn_parse+0x590>
    824c:	9a0000b6 	bls	852c <jsmn_parse+0x52c>
    8250:	e350007d 	cmp	r0, #125	; 0x7d
    8254:	1affffb0 	bne	811c <jsmn_parse+0x11c>
    8258:	e3530000 	cmp	r3, #0
    825c:	13a06001 	movne	r6, #1
    8260:	1a0000b8 	bne	8548 <jsmn_parse+0x548>
    8264:	e59c4000 	ldr	r4, [ip]
    8268:	e2844001 	add	r4, r4, #1
    826c:	e1520004 	cmp	r2, r4
    8270:	e58c4000 	str	r4, [ip]
    8274:	8affff6b 	bhi	8028 <jsmn_parse+0x28>
    8278:	eaffffdc 	b	81f0 <jsmn_parse+0x1f0>
    827c:	e59c0004 	ldr	r0, [ip, #4]
    8280:	e59c4000 	ldr	r4, [ip]
    8284:	e2400001 	sub	r0, r0, #1
    8288:	e58c0008 	str	r0, [ip, #8]
    828c:	e2844001 	add	r4, r4, #1
    8290:	eafffff5 	b	826c <jsmn_parse+0x26c>
    8294:	e2849001 	add	r9, r4, #1
    8298:	e1520009 	cmp	r2, r9
    829c:	e1a00009 	mov	r0, r9
    82a0:	e58c9000 	str	r9, [ip]
    82a4:	9a000042 	bls	83b4 <jsmn_parse+0x3b4>
    82a8:	e58da004 	str	sl, [sp, #4]
    82ac:	ea000004 	b	82c4 <jsmn_parse+0x2c4>
    82b0:	e59c0000 	ldr	r0, [ip]
    82b4:	e2800001 	add	r0, r0, #1
    82b8:	e1520000 	cmp	r2, r0
    82bc:	e58c0000 	str	r0, [ip]
    82c0:	9a00003b 	bls	83b4 <jsmn_parse+0x3b4>
    82c4:	e7d1e000 	ldrb	lr, [r1, r0]
    82c8:	e35e0000 	cmp	lr, #0
    82cc:	0a000038 	beq	83b4 <jsmn_parse+0x3b4>
    82d0:	e35e0022 	cmp	lr, #34	; 0x22
    82d4:	0a0000d9 	beq	8640 <jsmn_parse+0x640>
    82d8:	e35e005c 	cmp	lr, #92	; 0x5c
    82dc:	1afffff3 	bne	82b0 <jsmn_parse+0x2b0>
    82e0:	e280e001 	add	lr, r0, #1
    82e4:	e152000e 	cmp	r2, lr
    82e8:	9afffff0 	bls	82b0 <jsmn_parse+0x2b0>
    82ec:	e58ce000 	str	lr, [ip]
    82f0:	e081700e 	add	r7, r1, lr
    82f4:	e7d1e00e 	ldrb	lr, [r1, lr]
    82f8:	e35e0075 	cmp	lr, #117	; 0x75
    82fc:	8a000023 	bhi	8390 <jsmn_parse+0x390>
    8300:	e35e005b 	cmp	lr, #91	; 0x5b
    8304:	9a00001d 	bls	8380 <jsmn_parse+0x380>
    8308:	e24ee05c 	sub	lr, lr, #92	; 0x5c
    830c:	e35e0019 	cmp	lr, #25
    8310:	979ff10e 	ldrls	pc, [pc, lr, lsl #2]
    8314:	ea00001d 	b	8390 <jsmn_parse+0x390>
    8318:	000083a4 	.word	0x000083a4
    831c:	00008390 	.word	0x00008390
    8320:	00008390 	.word	0x00008390
    8324:	00008390 	.word	0x00008390
    8328:	00008390 	.word	0x00008390
    832c:	00008390 	.word	0x00008390
    8330:	000083a4 	.word	0x000083a4
    8334:	00008390 	.word	0x00008390
    8338:	00008390 	.word	0x00008390
    833c:	00008390 	.word	0x00008390
    8340:	000083a4 	.word	0x000083a4
    8344:	00008390 	.word	0x00008390
    8348:	00008390 	.word	0x00008390
    834c:	00008390 	.word	0x00008390
    8350:	00008390 	.word	0x00008390
    8354:	00008390 	.word	0x00008390
    8358:	00008390 	.word	0x00008390
    835c:	00008390 	.word	0x00008390
    8360:	000083a4 	.word	0x000083a4
    8364:	00008390 	.word	0x00008390
    8368:	00008390 	.word	0x00008390
    836c:	00008390 	.word	0x00008390
    8370:	000083a4 	.word	0x000083a4
    8374:	00008390 	.word	0x00008390
    8378:	000083a4 	.word	0x000083a4
    837c:	00008440 	.word	0x00008440
    8380:	e35e0022 	cmp	lr, #34	; 0x22
    8384:	0a000006 	beq	83a4 <jsmn_parse+0x3a4>
    8388:	e35e002f 	cmp	lr, #47	; 0x2f
    838c:	0a000004 	beq	83a4 <jsmn_parse+0x3a4>
    8390:	e3e00001 	mvn	r0, #1
    8394:	e58c4000 	str	r4, [ip]
    8398:	e28dd00c 	add	sp, sp, #12
    839c:	e8bd4ff0 	pop	{r4, r5, r6, r7, r8, r9, sl, fp, lr}
    83a0:	e12fff1e 	bx	lr
    83a4:	e2800002 	add	r0, r0, #2
    83a8:	e1520000 	cmp	r2, r0
    83ac:	e58c0000 	str	r0, [ip]
    83b0:	8affffc3 	bhi	82c4 <jsmn_parse+0x2c4>
    83b4:	e3e00002 	mvn	r0, #2
    83b8:	e58c4000 	str	r4, [ip]
    83bc:	e28dd00c 	add	sp, sp, #12
    83c0:	e8bd4ff0 	pop	{r4, r5, r6, r7, r8, r9, sl, fp, lr}
    83c4:	e12fff1e 	bx	lr
    83c8:	e3530000 	cmp	r3, #0
    83cc:	0affffa4 	beq	8264 <jsmn_parse+0x264>
    83d0:	e59c0008 	ldr	r0, [ip, #8]
    83d4:	e3700001 	cmn	r0, #1
    83d8:	0affffa1 	beq	8264 <jsmn_parse+0x264>
    83dc:	e7d30200 	ldrb	r0, [r3, r0, lsl #4]
    83e0:	e2400001 	sub	r0, r0, #1
    83e4:	e3500001 	cmp	r0, #1
    83e8:	9affff9d 	bls	8264 <jsmn_parse+0x264>
    83ec:	e59ce004 	ldr	lr, [ip, #4]
    83f0:	e25e4001 	subs	r4, lr, #1
    83f4:	5083e20e 	addpl	lr, r3, lr, lsl #4
    83f8:	5a000004 	bpl	8410 <jsmn_parse+0x410>
    83fc:	eaffff98 	b	8264 <jsmn_parse+0x264>
    8400:	e2444001 	sub	r4, r4, #1
    8404:	e3740001 	cmn	r4, #1
    8408:	e24ee010 	sub	lr, lr, #16
    840c:	0affff94 	beq	8264 <jsmn_parse+0x264>
    8410:	e55e0010 	ldrb	r0, [lr, #-16]
    8414:	e2400001 	sub	r0, r0, #1
    8418:	e3500001 	cmp	r0, #1
    841c:	8afffff7 	bhi	8400 <jsmn_parse+0x400>
    8420:	e51e000c 	ldr	r0, [lr, #-12]
    8424:	e3700001 	cmn	r0, #1
    8428:	0afffff4 	beq	8400 <jsmn_parse+0x400>
    842c:	e51e0008 	ldr	r0, [lr, #-8]
    8430:	e3700001 	cmn	r0, #1
    8434:	1afffff1 	bne	8400 <jsmn_parse+0x400>
    8438:	e58c4008 	str	r4, [ip, #8]
    843c:	eaffff88 	b	8264 <jsmn_parse+0x264>
    8440:	e280e002 	add	lr, r0, #2
    8444:	e58ce000 	str	lr, [ip]
    8448:	e2800006 	add	r0, r0, #6
    844c:	e152000e 	cmp	r2, lr
    8450:	0a00009c 	beq	86c8 <jsmn_parse+0x6c8>
    8454:	e5f75001 	ldrb	r5, [r7, #1]!
    8458:	e3c56020 	bic	r6, r5, #32
    845c:	e3550000 	cmp	r5, #0
    8460:	e2466041 	sub	r6, r6, #65	; 0x41
    8464:	e245a030 	sub	sl, r5, #48	; 0x30
    8468:	0a000098 	beq	86d0 <jsmn_parse+0x6d0>
    846c:	e3560005 	cmp	r6, #5
    8470:	835a0009 	cmphi	sl, #9
    8474:	e28ee001 	add	lr, lr, #1
    8478:	8affffc4 	bhi	8390 <jsmn_parse+0x390>
    847c:	e15e0000 	cmp	lr, r0
    8480:	e58ce000 	str	lr, [ip]
    8484:	1afffff0 	bne	844c <jsmn_parse+0x44c>
    8488:	eaffff8a 	b	82b8 <jsmn_parse+0x2b8>
    848c:	e240e009 	sub	lr, r0, #9
    8490:	e35e0023 	cmp	lr, #35	; 0x23
    8494:	979ff10e 	ldrls	pc, [pc, lr, lsl #2]
    8498:	eaffff27 	b	813c <jsmn_parse+0x13c>
    849c:	00008180 	.word	0x00008180
    84a0:	00008180 	.word	0x00008180
    84a4:	0000813c 	.word	0x0000813c
    84a8:	0000813c 	.word	0x0000813c
    84ac:	00008180 	.word	0x00008180
    84b0:	0000813c 	.word	0x0000813c
    84b4:	0000813c 	.word	0x0000813c
    84b8:	0000813c 	.word	0x0000813c
    84bc:	0000813c 	.word	0x0000813c
    84c0:	0000813c 	.word	0x0000813c
    84c4:	0000813c 	.word	0x0000813c
    84c8:	0000813c 	.word	0x0000813c
    84cc:	0000813c 	.word	0x0000813c
    84d0:	0000813c 	.word	0x0000813c
    84d4:	0000813c 	.word	0x0000813c
    84d8:	0000813c 	.word	0x0000813c
    84dc:	0000813c 	.word	0x0000813c
    84e0:	0000813c 	.word	0x0000813c
    84e4:	0000813c 	.word	0x0000813c
    84e8:	0000813c 	.word	0x0000813c
    84ec:	0000813c 	.word	0x0000813c
    84f0:	0000813c 	.word	0x0000813c
    84f4:	0000813c 	.word	0x0000813c
    84f8:	00008180 	.word	0x00008180
    84fc:	0000813c 	.word	0x0000813c
    8500:	0000813c 	.word	0x0000813c
    8504:	0000813c 	.word	0x0000813c
    8508:	0000813c 	.word	0x0000813c
    850c:	0000813c 	.word	0x0000813c
    8510:	0000813c 	.word	0x0000813c
    8514:	0000813c 	.word	0x0000813c
    8518:	0000813c 	.word	0x0000813c
    851c:	0000813c 	.word	0x0000813c
    8520:	0000813c 	.word	0x0000813c
    8524:	0000813c 	.word	0x0000813c
    8528:	00008180 	.word	0x00008180
    852c:	e350005b 	cmp	r0, #91	; 0x5b
    8530:	0a000016 	beq	8590 <jsmn_parse+0x590>
    8534:	e350005d 	cmp	r0, #93	; 0x5d
    8538:	1afffef7 	bne	811c <jsmn_parse+0x11c>
    853c:	e3530000 	cmp	r3, #0
    8540:	13a06002 	movne	r6, #2
    8544:	0affff46 	beq	8264 <jsmn_parse+0x264>
    8548:	e59c0004 	ldr	r0, [ip, #4]
    854c:	e2500001 	subs	r0, r0, #1
    8550:	4a000064 	bmi	86e8 <jsmn_parse+0x6e8>
    8554:	e083e200 	add	lr, r3, r0, lsl #4
    8558:	e59e5004 	ldr	r5, [lr, #4]
    855c:	e3750001 	cmn	r5, #1
    8560:	0a000002 	beq	8570 <jsmn_parse+0x570>
    8564:	e59e5008 	ldr	r5, [lr, #8]
    8568:	e3750001 	cmn	r5, #1
    856c:	0a000024 	beq	8604 <jsmn_parse+0x604>
    8570:	e2400001 	sub	r0, r0, #1
    8574:	e3700001 	cmn	r0, #1
    8578:	e24ee010 	sub	lr, lr, #16
    857c:	1afffff5 	bne	8558 <jsmn_parse+0x558>
    8580:	e3e00001 	mvn	r0, #1
    8584:	e28dd00c 	add	sp, sp, #12
    8588:	e8bd4ff0 	pop	{r4, r5, r6, r7, r8, r9, sl, fp, lr}
    858c:	e12fff1e 	bx	lr
    8590:	e3530000 	cmp	r3, #0
    8594:	e28aa001 	add	sl, sl, #1
    8598:	0affff31 	beq	8264 <jsmn_parse+0x264>
    859c:	e59ce004 	ldr	lr, [ip, #4]
    85a0:	e59d5030 	ldr	r5, [sp, #48]	; 0x30
    85a4:	e155000e 	cmp	r5, lr
    85a8:	9a000044 	bls	86c0 <jsmn_parse+0x6c0>
    85ac:	e28e7001 	add	r7, lr, #1
    85b0:	e58c7004 	str	r7, [ip, #4]
    85b4:	e3e07000 	mvn	r7, #0
    85b8:	e083620e 	add	r6, r3, lr, lsl #4
    85bc:	e59c5008 	ldr	r5, [ip, #8]
    85c0:	e5867008 	str	r7, [r6, #8]
    85c4:	e3a07000 	mov	r7, #0
    85c8:	e3750001 	cmn	r5, #1
    85cc:	e586700c 	str	r7, [r6, #12]
    85d0:	10835205 	addne	r5, r3, r5, lsl #4
    85d4:	1595700c 	ldrne	r7, [r5, #12]
    85d8:	12877001 	addne	r7, r7, #1
    85dc:	1585700c 	strne	r7, [r5, #12]
    85e0:	e350007b 	cmp	r0, #123	; 0x7b
    85e4:	03a00001 	moveq	r0, #1
    85e8:	13a00002 	movne	r0, #2
    85ec:	e7c3020e 	strb	r0, [r3, lr, lsl #4]
    85f0:	e5864004 	str	r4, [r6, #4]
    85f4:	e59c4000 	ldr	r4, [ip]
    85f8:	e58ce008 	str	lr, [ip, #8]
    85fc:	e2844001 	add	r4, r4, #1
    8600:	eaffff19 	b	826c <jsmn_parse+0x26c>
    8604:	e5de7000 	ldrb	r7, [lr]
    8608:	e1570006 	cmp	r7, r6
    860c:	1affffdb 	bne	8580 <jsmn_parse+0x580>
    8610:	e2844001 	add	r4, r4, #1
    8614:	e58c5008 	str	r5, [ip, #8]
    8618:	e58e4008 	str	r4, [lr, #8]
    861c:	e798e200 	ldr	lr, [r8, r0, lsl #4]
    8620:	e37e0001 	cmn	lr, #1
    8624:	0a000002 	beq	8634 <jsmn_parse+0x634>
    8628:	e79be200 	ldr	lr, [fp, r0, lsl #4]
    862c:	e37e0001 	cmn	lr, #1
    8630:	0a00001d 	beq	86ac <jsmn_parse+0x6ac>
    8634:	e2500001 	subs	r0, r0, #1
    8638:	2afffff7 	bcs	861c <jsmn_parse+0x61c>
    863c:	eaffff08 	b	8264 <jsmn_parse+0x264>
    8640:	e3530000 	cmp	r3, #0
    8644:	e59da004 	ldr	sl, [sp, #4]
    8648:	0a000022 	beq	86d8 <jsmn_parse+0x6d8>
    864c:	e59ce004 	ldr	lr, [ip, #4]
    8650:	e59d5030 	ldr	r5, [sp, #48]	; 0x30
    8654:	e155000e 	cmp	r5, lr
    8658:	9a000015 	bls	86b4 <jsmn_parse+0x6b4>
    865c:	e28e5001 	add	r5, lr, #1
    8660:	e58c5004 	str	r5, [ip, #4]
    8664:	e3a05000 	mov	r5, #0
    8668:	e083420e 	add	r4, r3, lr, lsl #4
    866c:	e584500c 	str	r5, [r4, #12]
    8670:	e3a05004 	mov	r5, #4
    8674:	e7c3520e 	strb	r5, [r3, lr, lsl #4]
    8678:	e5840008 	str	r0, [r4, #8]
    867c:	e59c0008 	ldr	r0, [ip, #8]
    8680:	e3700001 	cmn	r0, #1
    8684:	e5849004 	str	r9, [r4, #4]
    8688:	e28aa001 	add	sl, sl, #1
    868c:	0afffef4 	beq	8264 <jsmn_parse+0x264>
    8690:	e0830200 	add	r0, r3, r0, lsl #4
    8694:	e590e00c 	ldr	lr, [r0, #12]
    8698:	e59c4000 	ldr	r4, [ip]
    869c:	e28ee001 	add	lr, lr, #1
    86a0:	e580e00c 	str	lr, [r0, #12]
    86a4:	e2844001 	add	r4, r4, #1
    86a8:	eafffeef 	b	826c <jsmn_parse+0x26c>
    86ac:	e58c0008 	str	r0, [ip, #8]
    86b0:	eafffeeb 	b	8264 <jsmn_parse+0x264>
    86b4:	e3e00000 	mvn	r0, #0
    86b8:	e58c4000 	str	r4, [ip]
    86bc:	eaffff35 	b	8398 <jsmn_parse+0x398>
    86c0:	e3e00000 	mvn	r0, #0
    86c4:	eaffff33 	b	8398 <jsmn_parse+0x398>
    86c8:	e1a00002 	mov	r0, r2
    86cc:	eafffef9 	b	82b8 <jsmn_parse+0x2b8>
    86d0:	e1a0000e 	mov	r0, lr
    86d4:	eafffef7 	b	82b8 <jsmn_parse+0x2b8>
    86d8:	e59c4000 	ldr	r4, [ip]
    86dc:	e28aa001 	add	sl, sl, #1
    86e0:	e2844001 	add	r4, r4, #1
    86e4:	eafffee0 	b	826c <jsmn_parse+0x26c>
    86e8:	e3700001 	cmn	r0, #1
    86ec:	1afffedc 	bne	8264 <jsmn_parse+0x264>
    86f0:	eaffffa2 	b	8580 <jsmn_parse+0x580>

000086f4 <jsmn_init>:
    86f4:	e3a03000 	mov	r3, #0
    86f8:	e3e02000 	mvn	r2, #0
    86fc:	e5803000 	str	r3, [r0]
    8700:	e5803004 	str	r3, [r0, #4]
    8704:	e5802008 	str	r2, [r0, #8]
    8708:	e12fff1e 	bx	lr

0000870c <DoublePulseControl>:
    870c:	e92d4010 	push	{r4, lr}
    8710:	e59f4054 	ldr	r4, [pc, #84]	; 876c <DoublePulseControl+0x60>
    8714:	e3a01001 	mov	r1, #1
    8718:	e3a00012 	mov	r0, #18
    871c:	eb000189 	bl	8d48 <gpio_write>
    8720:	e5940000 	ldr	r0, [r4]
    8724:	eb000197 	bl	8d88 <delay>
    8728:	e3a01000 	mov	r1, #0
    872c:	e3a00012 	mov	r0, #18
    8730:	eb000184 	bl	8d48 <gpio_write>
    8734:	e5940004 	ldr	r0, [r4, #4]
    8738:	eb000192 	bl	8d88 <delay>
    873c:	e3a01001 	mov	r1, #1
    8740:	e3a00012 	mov	r0, #18
    8744:	eb00017f 	bl	8d48 <gpio_write>
    8748:	e5940008 	ldr	r0, [r4, #8]
    874c:	eb00018d 	bl	8d88 <delay>
    8750:	e3a00012 	mov	r0, #18
    8754:	e3a01000 	mov	r1, #0
    8758:	eb00017a 	bl	8d48 <gpio_write>
    875c:	e594000c 	ldr	r0, [r4, #12]
    8760:	eb000188 	bl	8d88 <delay>
    8764:	e8bd4010 	pop	{r4, lr}
    8768:	e12fff1e 	bx	lr
    876c:	0000938c 	.word	0x0000938c

00008770 <notmain>:
    8770:	e92d4ff0 	push	{r4, r5, r6, r7, r8, r9, sl, fp, lr}
    8774:	e3e03000 	mvn	r3, #0
    8778:	e3a04000 	mov	r4, #0
    877c:	e24dde72 	sub	sp, sp, #1824	; 0x720
    8780:	e24dd004 	sub	sp, sp, #4
    8784:	e58d3014 	str	r3, [sp, #20]
    8788:	e58d400c 	str	r4, [sp, #12]
    878c:	e58d4010 	str	r4, [sp, #16]
    8790:	eb00018d 	bl	8dcc <uart_init>
    8794:	e3a00012 	mov	r0, #18
    8798:	e3a01001 	mov	r1, #1
    879c:	eb000119 	bl	8c08 <gpio_init>
    87a0:	e1a01004 	mov	r1, r4
    87a4:	e3a00012 	mov	r0, #18
    87a8:	eb000166 	bl	8d48 <gpio_write>
    87ac:	e3a00f4b 	mov	r0, #300	; 0x12c
    87b0:	eb000174 	bl	8d88 <delay>
    87b4:	e59f02d0 	ldr	r0, [pc, #720]	; 8a8c <notmain+0x31c>
    87b8:	eb0001ac 	bl	8e70 <uart_puts>
    87bc:	e59f02cc 	ldr	r0, [pc, #716]	; 8a90 <notmain+0x320>
    87c0:	eb0001aa 	bl	8e70 <uart_puts>
    87c4:	e59f02c8 	ldr	r0, [pc, #712]	; 8a94 <notmain+0x324>
    87c8:	eb0001a8 	bl	8e70 <uart_puts>
    87cc:	e3a00012 	mov	r0, #18
    87d0:	eb0001b3 	bl	8ea4 <uart_put_uint>
    87d4:	e59f02bc 	ldr	r0, [pc, #700]	; 8a98 <notmain+0x328>
    87d8:	eb0001a4 	bl	8e70 <uart_puts>
    87dc:	e59f02b8 	ldr	r0, [pc, #696]	; 8a9c <notmain+0x32c>
    87e0:	eb0001a2 	bl	8e70 <uart_puts>
    87e4:	e59f02b4 	ldr	r0, [pc, #692]	; 8aa0 <notmain+0x330>
    87e8:	eb0001a0 	bl	8e70 <uart_puts>
    87ec:	e59f02b0 	ldr	r0, [pc, #688]	; 8aa4 <notmain+0x334>
    87f0:	e59f62b0 	ldr	r6, [pc, #688]	; 8aa8 <notmain+0x338>
    87f4:	e59fa2b0 	ldr	sl, [pc, #688]	; 8aac <notmain+0x33c>
    87f8:	e59f72b0 	ldr	r7, [pc, #688]	; 8ab0 <notmain+0x340>
    87fc:	eb00019b 	bl	8e70 <uart_puts>
    8800:	e3a01064 	mov	r1, #100	; 0x64
    8804:	e59f22a8 	ldr	r2, [pc, #680]	; 8ab4 <notmain+0x344>
    8808:	e28d0018 	add	r0, sp, #24
    880c:	eb0001db 	bl	8f80 <uart_read_line_blocking>
    8810:	e3500000 	cmp	r0, #0
    8814:	0a000044 	beq	892c <notmain+0x1bc>
    8818:	e1a00006 	mov	r0, r6
    881c:	eb000193 	bl	8e70 <uart_puts>
    8820:	e28d0018 	add	r0, sp, #24
    8824:	eb0000b2 	bl	8af4 <strlen>
    8828:	e3a0c064 	mov	ip, #100	; 0x64
    882c:	e1a02000 	mov	r2, r0
    8830:	e58dc000 	str	ip, [sp]
    8834:	e28d30e0 	add	r3, sp, #224	; 0xe0
    8838:	e28d1018 	add	r1, sp, #24
    883c:	e28d000c 	add	r0, sp, #12
    8840:	ebfffdee 	bl	8000 <jsmn_parse>
    8844:	e250b000 	subs	fp, r0, #0
    8848:	ba00004c 	blt	8980 <notmain+0x210>
    884c:	e5dd30e0 	ldrb	r3, [sp, #224]	; 0xe0
    8850:	e3530001 	cmp	r3, #1
    8854:	1a000067 	bne	89f8 <notmain+0x288>
    8858:	e35b0001 	cmp	fp, #1
    885c:	da000032 	ble	892c <notmain+0x1bc>
    8860:	e3a05002 	mov	r5, #2
    8864:	e59f824c 	ldr	r8, [pc, #588]	; 8ab8 <notmain+0x348>
    8868:	e28d40e0 	add	r4, sp, #224	; 0xe0
    886c:	ea000004 	b	8884 <notmain+0x114>
    8870:	e1a09005 	mov	r9, r5
    8874:	e15b0009 	cmp	fp, r9
    8878:	e2844010 	add	r4, r4, #16
    887c:	e2855001 	add	r5, r5, #1
    8880:	da000029 	ble	892c <notmain+0x1bc>
    8884:	e5d43010 	ldrb	r3, [r4, #16]
    8888:	e3530004 	cmp	r3, #4
    888c:	1afffff7 	bne	8870 <notmain+0x100>
    8890:	e594301c 	ldr	r3, [r4, #28]
    8894:	e3530001 	cmp	r3, #1
    8898:	1afffff4 	bne	8870 <notmain+0x100>
    889c:	e2841014 	add	r1, r4, #20
    88a0:	e8910006 	ldm	r1, {r1, r2}
    88a4:	e28d3018 	add	r3, sp, #24
    88a8:	e0422001 	sub	r2, r2, r1
    88ac:	e28d007c 	add	r0, sp, #124	; 0x7c
    88b0:	e0831001 	add	r1, r3, r1
    88b4:	eb0000a9 	bl	8b60 <strncpy>
    88b8:	e3a02000 	mov	r2, #0
    88bc:	e2841018 	add	r1, r4, #24
    88c0:	e811000a 	ldmda	r1, {r1, r3}
    88c4:	e0433001 	sub	r3, r3, r1
    88c8:	e2833e72 	add	r3, r3, #1824	; 0x720
    88cc:	e08d3003 	add	r3, sp, r3
    88d0:	e1a0100a 	mov	r1, sl
    88d4:	e54326a4 	strb	r2, [r3, #-1700]	; 0xfffff95c
    88d8:	e28d007c 	add	r0, sp, #124	; 0x7c
    88dc:	eb00008e 	bl	8b1c <strcmp>
    88e0:	e2501000 	subs	r1, r0, #0
    88e4:	1a000012 	bne	8934 <notmain+0x1c4>
    88e8:	e5940024 	ldr	r0, [r4, #36]	; 0x24
    88ec:	e28d3018 	add	r3, sp, #24
    88f0:	e3a0200a 	mov	r2, #10
    88f4:	e0830000 	add	r0, r3, r0
    88f8:	eb0000b0 	bl	8bc0 <strtoul>
    88fc:	e1a09005 	mov	r9, r5
    8900:	e5870000 	str	r0, [r7]
    8904:	e59f01b0 	ldr	r0, [pc, #432]	; 8abc <notmain+0x34c>
    8908:	eb000158 	bl	8e70 <uart_puts>
    890c:	e5970000 	ldr	r0, [r7]
    8910:	eb000163 	bl	8ea4 <uart_put_uint>
    8914:	e59f01a4 	ldr	r0, [pc, #420]	; 8ac0 <notmain+0x350>
    8918:	eb000154 	bl	8e70 <uart_puts>
    891c:	e15b0009 	cmp	fp, r9
    8920:	e2844010 	add	r4, r4, #16
    8924:	e2855001 	add	r5, r5, #1
    8928:	caffffd5 	bgt	8884 <notmain+0x114>
    892c:	ebffff76 	bl	870c <DoublePulseControl>
    8930:	eaffffb2 	b	8800 <notmain+0x90>
    8934:	e59f1188 	ldr	r1, [pc, #392]	; 8ac4 <notmain+0x354>
    8938:	e28d007c 	add	r0, sp, #124	; 0x7c
    893c:	eb000076 	bl	8b1c <strcmp>
    8940:	e2501000 	subs	r1, r0, #0
    8944:	1a000018 	bne	89ac <notmain+0x23c>
    8948:	e5940024 	ldr	r0, [r4, #36]	; 0x24
    894c:	e28d3018 	add	r3, sp, #24
    8950:	e3a0200a 	mov	r2, #10
    8954:	e0830000 	add	r0, r3, r0
    8958:	eb000098 	bl	8bc0 <strtoul>
    895c:	e5870004 	str	r0, [r7, #4]
    8960:	e59f0160 	ldr	r0, [pc, #352]	; 8ac8 <notmain+0x358>
    8964:	eb000141 	bl	8e70 <uart_puts>
    8968:	e5970004 	ldr	r0, [r7, #4]
    896c:	eb00014c 	bl	8ea4 <uart_put_uint>
    8970:	e59f0148 	ldr	r0, [pc, #328]	; 8ac0 <notmain+0x350>
    8974:	e1a09005 	mov	r9, r5
    8978:	eb00013c 	bl	8e70 <uart_puts>
    897c:	eaffffbc 	b	8874 <notmain+0x104>
    8980:	e59f0144 	ldr	r0, [pc, #324]	; 8acc <notmain+0x35c>
    8984:	eb000139 	bl	8e70 <uart_puts>
    8988:	e37b0002 	cmn	fp, #2
    898c:	0a000032 	beq	8a5c <notmain+0x2ec>
    8990:	e37b0001 	cmn	fp, #1
    8994:	0a000036 	beq	8a74 <notmain+0x304>
    8998:	e37b0003 	cmn	fp, #3
    899c:	0a000031 	beq	8a68 <notmain+0x2f8>
    89a0:	e59f0128 	ldr	r0, [pc, #296]	; 8ad0 <notmain+0x360>
    89a4:	eb000131 	bl	8e70 <uart_puts>
    89a8:	eaffff94 	b	8800 <notmain+0x90>
    89ac:	e59f1120 	ldr	r1, [pc, #288]	; 8ad4 <notmain+0x364>
    89b0:	e28d007c 	add	r0, sp, #124	; 0x7c
    89b4:	eb000058 	bl	8b1c <strcmp>
    89b8:	e2501000 	subs	r1, r0, #0
    89bc:	1a000013 	bne	8a10 <notmain+0x2a0>
    89c0:	e5940024 	ldr	r0, [r4, #36]	; 0x24
    89c4:	e28d3018 	add	r3, sp, #24
    89c8:	e3a0200a 	mov	r2, #10
    89cc:	e0830000 	add	r0, r3, r0
    89d0:	eb00007a 	bl	8bc0 <strtoul>
    89d4:	e5870008 	str	r0, [r7, #8]
    89d8:	e59f00f8 	ldr	r0, [pc, #248]	; 8ad8 <notmain+0x368>
    89dc:	eb000123 	bl	8e70 <uart_puts>
    89e0:	e5970008 	ldr	r0, [r7, #8]
    89e4:	eb00012e 	bl	8ea4 <uart_put_uint>
    89e8:	e59f00d0 	ldr	r0, [pc, #208]	; 8ac0 <notmain+0x350>
    89ec:	e1a09005 	mov	r9, r5
    89f0:	eb00011e 	bl	8e70 <uart_puts>
    89f4:	eaffff9e 	b	8874 <notmain+0x104>
    89f8:	e59f00dc 	ldr	r0, [pc, #220]	; 8adc <notmain+0x36c>
    89fc:	eb00011b 	bl	8e70 <uart_puts>
    8a00:	e28dde72 	add	sp, sp, #1824	; 0x720
    8a04:	e28dd004 	add	sp, sp, #4
    8a08:	e8bd4ff0 	pop	{r4, r5, r6, r7, r8, r9, sl, fp, lr}
    8a0c:	e12fff1e 	bx	lr
    8a10:	e1a01008 	mov	r1, r8
    8a14:	e28d007c 	add	r0, sp, #124	; 0x7c
    8a18:	eb00003f 	bl	8b1c <strcmp>
    8a1c:	e2501000 	subs	r1, r0, #0
    8a20:	1a000016 	bne	8a80 <notmain+0x310>
    8a24:	e5940024 	ldr	r0, [r4, #36]	; 0x24
    8a28:	e28d3018 	add	r3, sp, #24
    8a2c:	e3a0200a 	mov	r2, #10
    8a30:	e0830000 	add	r0, r3, r0
    8a34:	eb000061 	bl	8bc0 <strtoul>
    8a38:	e587000c 	str	r0, [r7, #12]
    8a3c:	e59f009c 	ldr	r0, [pc, #156]	; 8ae0 <notmain+0x370>
    8a40:	eb00010a 	bl	8e70 <uart_puts>
    8a44:	e597000c 	ldr	r0, [r7, #12]
    8a48:	eb000115 	bl	8ea4 <uart_put_uint>
    8a4c:	e59f006c 	ldr	r0, [pc, #108]	; 8ac0 <notmain+0x350>
    8a50:	e1a09005 	mov	r9, r5
    8a54:	eb000105 	bl	8e70 <uart_puts>
    8a58:	eaffff85 	b	8874 <notmain+0x104>
    8a5c:	e59f0080 	ldr	r0, [pc, #128]	; 8ae4 <notmain+0x374>
    8a60:	eb000102 	bl	8e70 <uart_puts>
    8a64:	eaffff65 	b	8800 <notmain+0x90>
    8a68:	e59f0078 	ldr	r0, [pc, #120]	; 8ae8 <notmain+0x378>
    8a6c:	eb0000ff 	bl	8e70 <uart_puts>
    8a70:	eaffff62 	b	8800 <notmain+0x90>
    8a74:	e59f0070 	ldr	r0, [pc, #112]	; 8aec <notmain+0x37c>
    8a78:	eb0000fc 	bl	8e70 <uart_puts>
    8a7c:	eaffff5f 	b	8800 <notmain+0x90>
    8a80:	e59f0068 	ldr	r0, [pc, #104]	; 8af0 <notmain+0x380>
    8a84:	eb0000f9 	bl	8e70 <uart_puts>
    8a88:	eaffff78 	b	8870 <notmain+0x100>
    8a8c:	00009020 	.word	0x00009020
    8a90:	00009054 	.word	0x00009054
    8a94:	000090d0 	.word	0x000090d0
    8a98:	000090e8 	.word	0x000090e8
    8a9c:	00009100 	.word	0x00009100
    8aa0:	00009134 	.word	0x00009134
    8aa4:	00009178 	.word	0x00009178
    8aa8:	000091bc 	.word	0x000091bc
    8aac:	000092b0 	.word	0x000092b0
    8ab0:	0000938c 	.word	0x0000938c
    8ab4:	00002710 	.word	0x00002710
    8ab8:	0000932c 	.word	0x0000932c
    8abc:	000092bc 	.word	0x000092bc
    8ac0:	00009050 	.word	0x00009050
    8ac4:	000092d8 	.word	0x000092d8
    8ac8:	000092e8 	.word	0x000092e8
    8acc:	000091d8 	.word	0x000091d8
    8ad0:	0000925c 	.word	0x0000925c
    8ad4:	00009304 	.word	0x00009304
    8ad8:	00009310 	.word	0x00009310
    8adc:	00009270 	.word	0x00009270
    8ae0:	0000933c 	.word	0x0000933c
    8ae4:	00009210 	.word	0x00009210
    8ae8:	00009234 	.word	0x00009234
    8aec:	000091ec 	.word	0x000091ec
    8af0:	00009358 	.word	0x00009358

00008af4 <strlen>:
    8af4:	e1a03000 	mov	r3, r0
    8af8:	e4d30001 	ldrb	r0, [r3], #1
    8afc:	e3500000 	cmp	r0, #0
    8b00:	012fff1e 	bxeq	lr
    8b04:	e3a00000 	mov	r0, #0
    8b08:	e4d32001 	ldrb	r2, [r3], #1
    8b0c:	e3520000 	cmp	r2, #0
    8b10:	e2800001 	add	r0, r0, #1
    8b14:	1afffffb 	bne	8b08 <strlen+0x14>
    8b18:	e12fff1e 	bx	lr

00008b1c <strcmp>:
    8b1c:	e5d03000 	ldrb	r3, [r0]
    8b20:	e3530000 	cmp	r3, #0
    8b24:	05d12000 	ldrbeq	r2, [r1]
    8b28:	1a000003 	bne	8b3c <strcmp+0x20>
    8b2c:	ea000006 	b	8b4c <strcmp+0x30>
    8b30:	e5f03001 	ldrb	r3, [r0, #1]!
    8b34:	e3530000 	cmp	r3, #0
    8b38:	0a000005 	beq	8b54 <strcmp+0x38>
    8b3c:	e1a0c001 	mov	ip, r1
    8b40:	e4d12001 	ldrb	r2, [r1], #1
    8b44:	e1520003 	cmp	r2, r3
    8b48:	0afffff8 	beq	8b30 <strcmp+0x14>
    8b4c:	e0430002 	sub	r0, r3, r2
    8b50:	e12fff1e 	bx	lr
    8b54:	e5dc2001 	ldrb	r2, [ip, #1]
    8b58:	e0430002 	sub	r0, r3, r2
    8b5c:	e12fff1e 	bx	lr

00008b60 <strncpy>:
    8b60:	e92d4030 	push	{r4, r5, lr}
    8b64:	e2525000 	subs	r5, r2, #0
    8b68:	0a000012 	beq	8bb8 <strncpy+0x58>
    8b6c:	e2403001 	sub	r3, r0, #1
    8b70:	e241e001 	sub	lr, r1, #1
    8b74:	e0832005 	add	r2, r3, r5
    8b78:	e2604001 	rsb	r4, r0, #1
    8b7c:	ea000002 	b	8b8c <strncpy+0x2c>
    8b80:	e5e3c001 	strb	ip, [r3, #1]!
    8b84:	e1530002 	cmp	r3, r2
    8b88:	0a00000a 	beq	8bb8 <strncpy+0x58>
    8b8c:	e5fec001 	ldrb	ip, [lr, #1]!
    8b90:	e35c0000 	cmp	ip, #0
    8b94:	e0841003 	add	r1, r4, r3
    8b98:	1afffff8 	bne	8b80 <strncpy+0x20>
    8b9c:	e1550001 	cmp	r5, r1
    8ba0:	9a000004 	bls	8bb8 <strncpy+0x58>
    8ba4:	e2413001 	sub	r3, r1, #1
    8ba8:	e0803003 	add	r3, r0, r3
    8bac:	e5e3c001 	strb	ip, [r3, #1]!
    8bb0:	e1530002 	cmp	r3, r2
    8bb4:	1afffffc 	bne	8bac <strncpy+0x4c>
    8bb8:	e8bd4030 	pop	{r4, r5, lr}
    8bbc:	e12fff1e 	bx	lr

00008bc0 <strtoul>:
    8bc0:	e52de004 	push	{lr}		; (str lr, [sp, #-4]!)
    8bc4:	e5d0e000 	ldrb	lr, [r0]
    8bc8:	e24e3030 	sub	r3, lr, #48	; 0x30
    8bcc:	e1a0c000 	mov	ip, r0
    8bd0:	e20300ff 	and	r0, r3, #255	; 0xff
    8bd4:	e3500009 	cmp	r0, #9
    8bd8:	e3a00000 	mov	r0, #0
    8bdc:	8a000005 	bhi	8bf8 <strtoul+0x38>
    8be0:	e5fce001 	ldrb	lr, [ip, #1]!
    8be4:	e0203092 	mla	r0, r2, r0, r3
    8be8:	e24e3030 	sub	r3, lr, #48	; 0x30
    8bec:	e203e0ff 	and	lr, r3, #255	; 0xff
    8bf0:	e35e0009 	cmp	lr, #9
    8bf4:	9afffff9 	bls	8be0 <strtoul+0x20>
    8bf8:	e3510000 	cmp	r1, #0
    8bfc:	1581c000 	strne	ip, [r1]
    8c00:	e49de004 	pop	{lr}		; (ldr lr, [sp], #4)
    8c04:	e12fff1e 	bx	lr

00008c08 <gpio_init>:
    8c08:	e3500009 	cmp	r0, #9
    8c0c:	ca00000b 	bgt	8c40 <gpio_init+0x38>
    8c10:	e52de004 	push	{lr}		; (str lr, [sp, #-4]!)
    8c14:	e3a0e007 	mov	lr, #7
    8c18:	e59f3124 	ldr	r3, [pc, #292]	; 8d44 <gpio_init+0x13c>
    8c1c:	e5932000 	ldr	r2, [r3]
    8c20:	e080c080 	add	ip, r0, r0, lsl #1
    8c24:	e1c22c1e 	bic	r2, r2, lr, lsl ip
    8c28:	e5832000 	str	r2, [r3]
    8c2c:	e5932000 	ldr	r2, [r3]
    8c30:	e1820c11 	orr	r0, r2, r1, lsl ip
    8c34:	e5830000 	str	r0, [r3]
    8c38:	e49de004 	pop	{lr}		; (ldr lr, [sp], #4)
    8c3c:	e12fff1e 	bx	lr
    8c40:	e3500013 	cmp	r0, #19
    8c44:	ca00000a 	bgt	8c74 <gpio_init+0x6c>
    8c48:	e3a0c007 	mov	ip, #7
    8c4c:	e59f20f0 	ldr	r2, [pc, #240]	; 8d44 <gpio_init+0x13c>
    8c50:	e240300a 	sub	r3, r0, #10
    8c54:	e5920004 	ldr	r0, [r2, #4]
    8c58:	e0833083 	add	r3, r3, r3, lsl #1
    8c5c:	e1c0031c 	bic	r0, r0, ip, lsl r3
    8c60:	e5820004 	str	r0, [r2, #4]
    8c64:	e5920004 	ldr	r0, [r2, #4]
    8c68:	e1801311 	orr	r1, r0, r1, lsl r3
    8c6c:	e5821004 	str	r1, [r2, #4]
    8c70:	e12fff1e 	bx	lr
    8c74:	e350001d 	cmp	r0, #29
    8c78:	da00000c 	ble	8cb0 <gpio_init+0xa8>
    8c7c:	e3500027 	cmp	r0, #39	; 0x27
    8c80:	ca000015 	bgt	8cdc <gpio_init+0xd4>
    8c84:	e3a0c007 	mov	ip, #7
    8c88:	e59f30b4 	ldr	r3, [pc, #180]	; 8d44 <gpio_init+0x13c>
    8c8c:	e240001e 	sub	r0, r0, #30
    8c90:	e593200c 	ldr	r2, [r3, #12]
    8c94:	e0800080 	add	r0, r0, r0, lsl #1
    8c98:	e1c2201c 	bic	r2, r2, ip, lsl r0
    8c9c:	e583200c 	str	r2, [r3, #12]
    8ca0:	e593200c 	ldr	r2, [r3, #12]
    8ca4:	e1821011 	orr	r1, r2, r1, lsl r0
    8ca8:	e583100c 	str	r1, [r3, #12]
    8cac:	e12fff1e 	bx	lr
    8cb0:	e3a0c007 	mov	ip, #7
    8cb4:	e59f3088 	ldr	r3, [pc, #136]	; 8d44 <gpio_init+0x13c>
    8cb8:	e2400014 	sub	r0, r0, #20
    8cbc:	e5932008 	ldr	r2, [r3, #8]
    8cc0:	e0800080 	add	r0, r0, r0, lsl #1
    8cc4:	e1c2201c 	bic	r2, r2, ip, lsl r0
    8cc8:	e5832008 	str	r2, [r3, #8]
    8ccc:	e5932008 	ldr	r2, [r3, #8]
    8cd0:	e1820011 	orr	r0, r2, r1, lsl r0
    8cd4:	e5830008 	str	r0, [r3, #8]
    8cd8:	e12fff1e 	bx	lr
    8cdc:	e3500031 	cmp	r0, #49	; 0x31
    8ce0:	da00000c 	ble	8d18 <gpio_init+0x110>
    8ce4:	e350003b 	cmp	r0, #59	; 0x3b
    8ce8:	c12fff1e 	bxgt	lr
    8cec:	e3a0c007 	mov	ip, #7
    8cf0:	e59f304c 	ldr	r3, [pc, #76]	; 8d44 <gpio_init+0x13c>
    8cf4:	e2400032 	sub	r0, r0, #50	; 0x32
    8cf8:	e5932014 	ldr	r2, [r3, #20]
    8cfc:	e0800080 	add	r0, r0, r0, lsl #1
    8d00:	e1c2201c 	bic	r2, r2, ip, lsl r0
    8d04:	e5832014 	str	r2, [r3, #20]
    8d08:	e5932014 	ldr	r2, [r3, #20]
    8d0c:	e1821011 	orr	r1, r2, r1, lsl r0
    8d10:	e5831014 	str	r1, [r3, #20]
    8d14:	e12fff1e 	bx	lr
    8d18:	e3a0c007 	mov	ip, #7
    8d1c:	e59f3020 	ldr	r3, [pc, #32]	; 8d44 <gpio_init+0x13c>
    8d20:	e2400028 	sub	r0, r0, #40	; 0x28
    8d24:	e5932010 	ldr	r2, [r3, #16]
    8d28:	e0800080 	add	r0, r0, r0, lsl #1
    8d2c:	e1c2201c 	bic	r2, r2, ip, lsl r0
    8d30:	e5832010 	str	r2, [r3, #16]
    8d34:	e5932010 	ldr	r2, [r3, #16]
    8d38:	e1821011 	orr	r1, r2, r1, lsl r0
    8d3c:	e5831010 	str	r1, [r3, #16]
    8d40:	e12fff1e 	bx	lr
    8d44:	20200000 	.word	0x20200000

00008d48 <gpio_write>:
    8d48:	e350001f 	cmp	r0, #31
    8d4c:	e3a03001 	mov	r3, #1
    8d50:	e59f202c 	ldr	r2, [pc, #44]	; 8d84 <gpio_write+0x3c>
    8d54:	ca000004 	bgt	8d6c <gpio_write+0x24>
    8d58:	e1a00013 	lsl	r0, r3, r0
    8d5c:	e3510000 	cmp	r1, #0
    8d60:	1582001c 	strne	r0, [r2, #28]
    8d64:	05820028 	streq	r0, [r2, #40]	; 0x28
    8d68:	e12fff1e 	bx	lr
    8d6c:	e2400020 	sub	r0, r0, #32
    8d70:	e1a00013 	lsl	r0, r3, r0
    8d74:	e3510000 	cmp	r1, #0
    8d78:	15820020 	strne	r0, [r2, #32]
    8d7c:	0582002c 	streq	r0, [r2, #44]	; 0x2c
    8d80:	e12fff1e 	bx	lr
    8d84:	20200000 	.word	0x20200000

00008d88 <delay>:
    8d88:	e3500000 	cmp	r0, #0
    8d8c:	d12fff1e 	bxle	lr
    8d90:	e3a03000 	mov	r3, #0
    8d94:	e1a00000 	nop			; (mov r0, r0)
    8d98:	e2833001 	add	r3, r3, #1
    8d9c:	e1500003 	cmp	r0, r3
    8da0:	1afffffb 	bne	8d94 <delay+0xc>
    8da4:	e12fff1e 	bx	lr

00008da8 <delay_us>:
    8da8:	e0600180 	rsb	r0, r0, r0, lsl #3
    8dac:	e3500000 	cmp	r0, #0
    8db0:	d12fff1e 	bxle	lr
    8db4:	e3a03000 	mov	r3, #0
    8db8:	e1a00000 	nop			; (mov r0, r0)
    8dbc:	e2833001 	add	r3, r3, #1
    8dc0:	e1500003 	cmp	r0, r3
    8dc4:	1afffffb 	bne	8db8 <delay_us+0x10>
    8dc8:	e12fff1e 	bx	lr

00008dcc <uart_init>:
    8dcc:	e92d41f0 	push	{r4, r5, r6, r7, r8, lr}
    8dd0:	e3a01001 	mov	r1, #1
    8dd4:	e3a05000 	mov	r5, #0
    8dd8:	e3a07003 	mov	r7, #3
    8ddc:	e3a020c6 	mov	r2, #198	; 0xc6
    8de0:	e59f4060 	ldr	r4, [pc, #96]	; 8e48 <uart_init+0x7c>
    8de4:	e59f3060 	ldr	r3, [pc, #96]	; 8e4c <uart_init+0x80>
    8de8:	e5845004 	str	r5, [r4, #4]
    8dec:	e59f605c 	ldr	r6, [pc, #92]	; 8e50 <uart_init+0x84>
    8df0:	e5841004 	str	r1, [r4, #4]
    8df4:	e5845060 	str	r5, [r4, #96]	; 0x60
    8df8:	e584704c 	str	r7, [r4, #76]	; 0x4c
    8dfc:	e5845050 	str	r5, [r4, #80]	; 0x50
    8e00:	e5845044 	str	r5, [r4, #68]	; 0x44
    8e04:	e5842048 	str	r2, [r4, #72]	; 0x48
    8e08:	e5843068 	str	r3, [r4, #104]	; 0x68
    8e0c:	e5963004 	ldr	r3, [r6, #4]
    8e10:	e3c33a3f 	bic	r3, r3, #258048	; 0x3f000
    8e14:	e3833a12 	orr	r3, r3, #73728	; 0x12000
    8e18:	e5863004 	str	r3, [r6, #4]
    8e1c:	e3a00096 	mov	r0, #150	; 0x96
    8e20:	e5865094 	str	r5, [r6, #148]	; 0x94
    8e24:	ebffffd7 	bl	8d88 <delay>
    8e28:	e3a03903 	mov	r3, #49152	; 0xc000
    8e2c:	e3a00096 	mov	r0, #150	; 0x96
    8e30:	e5863098 	str	r3, [r6, #152]	; 0x98
    8e34:	ebffffd3 	bl	8d88 <delay>
    8e38:	e5865098 	str	r5, [r6, #152]	; 0x98
    8e3c:	e5847060 	str	r7, [r4, #96]	; 0x60
    8e40:	e8bd41f0 	pop	{r4, r5, r6, r7, r8, lr}
    8e44:	e12fff1e 	bx	lr
    8e48:	20215000 	.word	0x20215000
    8e4c:	0000010e 	.word	0x0000010e
    8e50:	20200000 	.word	0x20200000

00008e54 <uart_send>:
    8e54:	e59f2010 	ldr	r2, [pc, #16]	; 8e6c <uart_send+0x18>
    8e58:	e5923054 	ldr	r3, [r2, #84]	; 0x54
    8e5c:	e3130020 	tst	r3, #32
    8e60:	0afffffc 	beq	8e58 <uart_send+0x4>
    8e64:	e5820040 	str	r0, [r2, #64]	; 0x40
    8e68:	e12fff1e 	bx	lr
    8e6c:	20215000 	.word	0x20215000

00008e70 <uart_puts>:
    8e70:	e5d01000 	ldrb	r1, [r0]
    8e74:	e3510000 	cmp	r1, #0
    8e78:	012fff1e 	bxeq	lr
    8e7c:	e59f201c 	ldr	r2, [pc, #28]	; 8ea0 <uart_puts+0x30>
    8e80:	e5923054 	ldr	r3, [r2, #84]	; 0x54
    8e84:	e3130020 	tst	r3, #32
    8e88:	0afffffc 	beq	8e80 <uart_puts+0x10>
    8e8c:	e5821040 	str	r1, [r2, #64]	; 0x40
    8e90:	e5f01001 	ldrb	r1, [r0, #1]!
    8e94:	e3510000 	cmp	r1, #0
    8e98:	1afffff8 	bne	8e80 <uart_puts+0x10>
    8e9c:	e12fff1e 	bx	lr
    8ea0:	20215000 	.word	0x20215000

00008ea4 <uart_put_uint>:
    8ea4:	e3500000 	cmp	r0, #0
    8ea8:	0a000023 	beq	8f3c <uart_put_uint+0x98>
    8eac:	e3a02000 	mov	r2, #0
    8eb0:	e92d4030 	push	{r4, r5, lr}
    8eb4:	e59f509c 	ldr	r5, [pc, #156]	; 8f58 <uart_put_uint+0xb4>
    8eb8:	e24dd014 	sub	sp, sp, #20
    8ebc:	e28d4003 	add	r4, sp, #3
    8ec0:	e1a01000 	mov	r1, r0
    8ec4:	e083e095 	umull	lr, r3, r5, r0
    8ec8:	e1a031a3 	lsr	r3, r3, #3
    8ecc:	e083e103 	add	lr, r3, r3, lsl #2
    8ed0:	e040008e 	sub	r0, r0, lr, lsl #1
    8ed4:	e3510009 	cmp	r1, #9
    8ed8:	e2800030 	add	r0, r0, #48	; 0x30
    8edc:	e1a0c002 	mov	ip, r2
    8ee0:	e2822001 	add	r2, r2, #1
    8ee4:	e200e0ff 	and	lr, r0, #255	; 0xff
    8ee8:	e1a00003 	mov	r0, r3
    8eec:	83a03001 	movhi	r3, #1
    8ef0:	93a03000 	movls	r3, #0
    8ef4:	e3520009 	cmp	r2, #9
    8ef8:	83a03000 	movhi	r3, #0
    8efc:	e3530000 	cmp	r3, #0
    8f00:	e5e4e001 	strb	lr, [r4, #1]!
    8f04:	1affffed 	bne	8ec0 <uart_put_uint+0x1c>
    8f08:	e28d0004 	add	r0, sp, #4
    8f0c:	e59f2048 	ldr	r2, [pc, #72]	; 8f5c <uart_put_uint+0xb8>
    8f10:	e080100c 	add	r1, r0, ip
    8f14:	e5923054 	ldr	r3, [r2, #84]	; 0x54
    8f18:	e3130020 	tst	r3, #32
    8f1c:	0afffffc 	beq	8f14 <uart_put_uint+0x70>
    8f20:	e1500001 	cmp	r0, r1
    8f24:	e582e040 	str	lr, [r2, #64]	; 0x40
    8f28:	1571e001 	ldrbne	lr, [r1, #-1]!
    8f2c:	1afffff8 	bne	8f14 <uart_put_uint+0x70>
    8f30:	e28dd014 	add	sp, sp, #20
    8f34:	e8bd4030 	pop	{r4, r5, lr}
    8f38:	e12fff1e 	bx	lr
    8f3c:	e59f2018 	ldr	r2, [pc, #24]	; 8f5c <uart_put_uint+0xb8>
    8f40:	e5923054 	ldr	r3, [r2, #84]	; 0x54
    8f44:	e3130020 	tst	r3, #32
    8f48:	0afffffc 	beq	8f40 <uart_put_uint+0x9c>
    8f4c:	e3a03030 	mov	r3, #48	; 0x30
    8f50:	e5823040 	str	r3, [r2, #64]	; 0x40
    8f54:	e12fff1e 	bx	lr
    8f58:	cccccccd 	.word	0xcccccccd
    8f5c:	20215000 	.word	0x20215000

00008f60 <uart_try_recv>:
    8f60:	e59f3014 	ldr	r3, [pc, #20]	; 8f7c <uart_try_recv+0x1c>
    8f64:	e5932054 	ldr	r2, [r3, #84]	; 0x54
    8f68:	e3120001 	tst	r2, #1
    8f6c:	15930040 	ldrne	r0, [r3, #64]	; 0x40
    8f70:	120000ff 	andne	r0, r0, #255	; 0xff
    8f74:	03e00000 	mvneq	r0, #0
    8f78:	e12fff1e 	bx	lr
    8f7c:	20215000 	.word	0x20215000

00008f80 <uart_read_line_blocking>:
    8f80:	e59f3088 	ldr	r3, [pc, #136]	; 9010 <uart_read_line_blocking+0x90>
    8f84:	e593c054 	ldr	ip, [r3, #84]	; 0x54
    8f88:	e21cc001 	ands	ip, ip, #1
    8f8c:	e92d4030 	push	{r4, r5, lr}
    8f90:	e1a04000 	mov	r4, r0
    8f94:	0a00001a 	beq	9004 <uart_read_line_blocking+0x84>
    8f98:	e5930040 	ldr	r0, [r3, #64]	; 0x40
    8f9c:	e1a05004 	mov	r5, r4
    8fa0:	e5c40000 	strb	r0, [r4]
    8fa4:	e3a00001 	mov	r0, #1
    8fa8:	e241e001 	sub	lr, r1, #1
    8fac:	e150000e 	cmp	r0, lr
    8fb0:	aa00000b 	bge	8fe4 <uart_read_line_blocking+0x64>
    8fb4:	e3a0c000 	mov	ip, #0
    8fb8:	e5931054 	ldr	r1, [r3, #84]	; 0x54
    8fbc:	e3110001 	tst	r1, #1
    8fc0:	0a00000b 	beq	8ff4 <uart_read_line_blocking+0x74>
    8fc4:	e15c0002 	cmp	ip, r2
    8fc8:	e5931040 	ldr	r1, [r3, #64]	; 0x40
    8fcc:	2a000004 	bcs	8fe4 <uart_read_line_blocking+0x64>
    8fd0:	e5e51001 	strb	r1, [r5, #1]!
    8fd4:	e20110ff 	and	r1, r1, #255	; 0xff
    8fd8:	e351000a 	cmp	r1, #10
    8fdc:	e2800001 	add	r0, r0, #1
    8fe0:	1afffff1 	bne	8fac <uart_read_line_blocking+0x2c>
    8fe4:	e3a03000 	mov	r3, #0
    8fe8:	e7c43000 	strb	r3, [r4, r0]
    8fec:	e8bd4030 	pop	{r4, r5, lr}
    8ff0:	e12fff1e 	bx	lr
    8ff4:	e15c0002 	cmp	ip, r2
    8ff8:	e28cc001 	add	ip, ip, #1
    8ffc:	3affffed 	bcc	8fb8 <uart_read_line_blocking+0x38>
    9000:	eafffff7 	b	8fe4 <uart_read_line_blocking+0x64>
    9004:	e1a0000c 	mov	r0, ip
    9008:	e5c4c000 	strb	ip, [r4]
    900c:	eafffff6 	b	8fec <uart_read_line_blocking+0x6c>
    9010:	20215000 	.word	0x20215000

00009014 <_start>:
    9014:	e3a0d902 	mov	sp, #32768	; 0x8000
    9018:	ebfffdd4 	bl	8770 <notmain>

0000901c <hang>:
    901c:	eafffffe 	b	901c <hang>
    9020:	2a2a2a2a 	.word	0x2a2a2a2a
    9024:	2a2a2a2a 	.word	0x2a2a2a2a
    9028:	2a2a2a2a 	.word	0x2a2a2a2a
    902c:	75442a2a 	.word	0x75442a2a
    9030:	50206c61 	.word	0x50206c61
    9034:	65736c75 	.word	0x65736c75
    9038:	6e654720 	.word	0x6e654720
    903c:	74617265 	.word	0x74617265
    9040:	2a2a726f 	.word	0x2a2a726f
    9044:	2a2a2a2a 	.word	0x2a2a2a2a
    9048:	2a2a2a2a 	.word	0x2a2a2a2a
    904c:	2a2a2a2a 	.word	0x2a2a2a2a
    9050:	00000a0d 	.word	0x00000a0d
    9054:	7355203e 	.word	0x7355203e
    9058:	3a656761 	.word	0x3a656761
    905c:	6e655320 	.word	0x6e655320
    9060:	534a2064 	.word	0x534a2064
    9064:	73204e4f 	.word	0x73204e4f
    9068:	6e697274 	.word	0x6e697274
    906c:	66202c67 	.word	0x66202c67
    9070:	6520726f 	.word	0x6520726f
    9074:	7b20672e 	.word	0x7b20672e
    9078:	6c757022 	.word	0x6c757022
    907c:	69576573 	.word	0x69576573
    9080:	31687464 	.word	0x31687464
    9084:	37203a22 	.word	0x37203a22
    9088:	22202c30 	.word	0x22202c30
    908c:	65746e69 	.word	0x65746e69
    9090:	6c755072 	.word	0x6c755072
    9094:	65446573 	.word	0x65446573
    9098:	2279616c 	.word	0x2279616c
    909c:	3033203a 	.word	0x3033203a
    90a0:	7022202c 	.word	0x7022202c
    90a4:	65736c75 	.word	0x65736c75
    90a8:	74646957 	.word	0x74646957
    90ac:	3a223268 	.word	0x3a223268
    90b0:	2c303520 	.word	0x2c303520
    90b4:	75702220 	.word	0x75702220
    90b8:	4965736c 	.word	0x4965736c
    90bc:	7265746e 	.word	0x7265746e
    90c0:	226c6176 	.word	0x226c6176
    90c4:	3035203a 	.word	0x3035203a
    90c8:	0d2e7d30 	.word	0x0d2e7d30
    90cc:	0000000a 	.word	0x0000000a
    90d0:	7355203e 	.word	0x7355203e
    90d4:	20676e69 	.word	0x20676e69
    90d8:	7074756f 	.word	0x7074756f
    90dc:	70207475 	.word	0x70207475
    90e0:	3a74726f 	.word	0x3a74726f
    90e4:	00000020 	.word	0x00000020
    90e8:	6564202c 	.word	0x6564202c
    90ec:	6c756166 	.word	0x6c756166
    90f0:	61762074 	.word	0x61762074
    90f4:	7365756c 	.word	0x7365756c
    90f8:	0a0d3a20 	.word	0x0a0d3a20
    90fc:	00000000 	.word	0x00000000
    9100:	5f5f203e 	.word	0x5f5f203e
    9104:	5f5f5f5f 	.word	0x5f5f5f5f
    9108:	5f5f5f5f 	.word	0x5f5f5f5f
    910c:	205f5f5f 	.word	0x205f5f5f
    9110:	20202020 	.word	0x20202020
    9114:	20202020 	.word	0x20202020
    9118:	20202020 	.word	0x20202020
    911c:	20202020 	.word	0x20202020
    9120:	5f5f2020 	.word	0x5f5f2020
    9124:	5f5f5f5f 	.word	0x5f5f5f5f
    9128:	5f5f5f5f 	.word	0x5f5f5f5f
    912c:	0a0d5f5f 	.word	0x0a0d5f5f
    9130:	00000000 	.word	0x00000000
    9134:	70207c3e 	.word	0x70207c3e
    9138:	65736c75 	.word	0x65736c75
    913c:	74646957 	.word	0x74646957
    9140:	7c203168 	.word	0x7c203168
    9144:	746e6920 	.word	0x746e6920
    9148:	75507265 	.word	0x75507265
    914c:	4465736c 	.word	0x4465736c
    9150:	79616c65 	.word	0x79616c65
    9154:	70207c20 	.word	0x70207c20
    9158:	65736c75 	.word	0x65736c75
    915c:	68746957 	.word	0x68746957
    9160:	207c2032 	.word	0x207c2032
    9164:	736c7570 	.word	0x736c7570
    9168:	746e4965 	.word	0x746e4965
    916c:	61767265 	.word	0x61767265
    9170:	0d7c206c 	.word	0x0d7c206c
    9174:	0000000a 	.word	0x0000000a
    9178:	2020203e 	.word	0x2020203e
    917c:	37202020 	.word	0x37202020
    9180:	20202030 	.word	0x20202030
    9184:	20202020 	.word	0x20202020
    9188:	5f5f5f5f 	.word	0x5f5f5f5f
    918c:	3033205f 	.word	0x3033205f
    9190:	5f5f5f20 	.word	0x5f5f5f20
    9194:	5f5f5f5f 	.word	0x5f5f5f5f
    9198:	2020205f 	.word	0x2020205f
    919c:	35202020 	.word	0x35202020
    91a0:	20202030 	.word	0x20202030
    91a4:	5f202020 	.word	0x5f202020
    91a8:	5f5f5f5f 	.word	0x5f5f5f5f
    91ac:	30303520 	.word	0x30303520
    91b0:	5f5f5f5f 	.word	0x5f5f5f5f
    91b4:	0a0d5f5f 	.word	0x0a0d5f5f
    91b8:	00000000 	.word	0x00000000
    91bc:	6150203e 	.word	0x6150203e
    91c0:	6e697372 	.word	0x6e697372
    91c4:	534a2067 	.word	0x534a2067
    91c8:	73204e4f 	.word	0x73204e4f
    91cc:	6e697274 	.word	0x6e697274
    91d0:	2e2e2e67 	.word	0x2e2e2e67
    91d4:	00000a0d 	.word	0x00000a0d
    91d8:	5252453e 	.word	0x5252453e
    91dc:	72615020 	.word	0x72615020
    91e0:	676e6973 	.word	0x676e6973
    91e4:	4f534a20 	.word	0x4f534a20
    91e8:	00203a4e 	.word	0x00203a4e
    91ec:	20746f4e 	.word	0x20746f4e
    91f0:	756f6e65 	.word	0x756f6e65
    91f4:	74206867 	.word	0x74206867
    91f8:	6e656b6f 	.word	0x6e656b6f
    91fc:	65772073 	.word	0x65772073
    9200:	70206572 	.word	0x70206572
    9204:	69766f72 	.word	0x69766f72
    9208:	2e646564 	.word	0x2e646564
    920c:	00000a0d 	.word	0x00000a0d
    9210:	61766e49 	.word	0x61766e49
    9214:	2064696c 	.word	0x2064696c
    9218:	72616863 	.word	0x72616863
    921c:	65746361 	.word	0x65746361
    9220:	6e692072 	.word	0x6e692072
    9224:	4f534a20 	.word	0x4f534a20
    9228:	7473204e 	.word	0x7473204e
    922c:	676e6972 	.word	0x676e6972
    9230:	000a0d2e 	.word	0x000a0d2e
    9234:	20656854 	.word	0x20656854
    9238:	69727473 	.word	0x69727473
    923c:	6920676e 	.word	0x6920676e
    9240:	6f6e2073 	.word	0x6f6e2073
    9244:	20612074 	.word	0x20612074
    9248:	6c6c7566 	.word	0x6c6c7566
    924c:	4f534a20 	.word	0x4f534a20
    9250:	6170204e 	.word	0x6170204e
    9254:	74656b63 	.word	0x74656b63
    9258:	000a0d2e 	.word	0x000a0d2e
    925c:	6e6b6e55 	.word	0x6e6b6e55
    9260:	206e776f 	.word	0x206e776f
    9264:	6f727265 	.word	0x6f727265
    9268:	0a0d2e72 	.word	0x0a0d2e72
    926c:	00000000 	.word	0x00000000
    9270:	5252453e 	.word	0x5252453e
    9274:	72615020 	.word	0x72615020
    9278:	676e6973 	.word	0x676e6973
    927c:	4f534a20 	.word	0x4f534a20
    9280:	54203a4e 	.word	0x54203a4e
    9284:	74206568 	.word	0x74206568
    9288:	6c2d706f 	.word	0x6c2d706f
    928c:	6c657665 	.word	0x6c657665
    9290:	656c6520 	.word	0x656c6520
    9294:	746e656d 	.word	0x746e656d
    9298:	20736920 	.word	0x20736920
    929c:	20746f6e 	.word	0x20746f6e
    92a0:	6f206e61 	.word	0x6f206e61
    92a4:	63656a62 	.word	0x63656a62
    92a8:	0a0d2e74 	.word	0x0a0d2e74
    92ac:	00000000 	.word	0x00000000
    92b0:	736c7570 	.word	0x736c7570
    92b4:	64695765 	.word	0x64695765
    92b8:	00316874 	.word	0x00316874
    92bc:	7570203e 	.word	0x7570203e
    92c0:	5765736c 	.word	0x5765736c
    92c4:	68746469 	.word	0x68746469
    92c8:	65732031 	.word	0x65732031
    92cc:	6f742074 	.word	0x6f742074
    92d0:	2020203a 	.word	0x2020203a
    92d4:	00002020 	.word	0x00002020
    92d8:	65746e69 	.word	0x65746e69
    92dc:	6c755072 	.word	0x6c755072
    92e0:	65446573 	.word	0x65446573
    92e4:	0079616c 	.word	0x0079616c
    92e8:	6e69203e 	.word	0x6e69203e
    92ec:	50726574 	.word	0x50726574
    92f0:	65736c75 	.word	0x65736c75
    92f4:	616c6544 	.word	0x616c6544
    92f8:	65732079 	.word	0x65732079
    92fc:	6f742074 	.word	0x6f742074
    9300:	0000203a 	.word	0x0000203a
    9304:	736c7570 	.word	0x736c7570
    9308:	64695765 	.word	0x64695765
    930c:	00326874 	.word	0x00326874
    9310:	7570203e 	.word	0x7570203e
    9314:	5765736c 	.word	0x5765736c
    9318:	68746469 	.word	0x68746469
    931c:	65732032 	.word	0x65732032
    9320:	6f742074 	.word	0x6f742074
    9324:	2020203a 	.word	0x2020203a
    9328:	00002020 	.word	0x00002020
    932c:	736c7570 	.word	0x736c7570
    9330:	746e4965 	.word	0x746e4965
    9334:	61767265 	.word	0x61767265
    9338:	0000006c 	.word	0x0000006c
    933c:	7570203e 	.word	0x7570203e
    9340:	4965736c 	.word	0x4965736c
    9344:	7265746e 	.word	0x7265746e
    9348:	206c6176 	.word	0x206c6176
    934c:	20746573 	.word	0x20746573
    9350:	203a6f74 	.word	0x203a6f74
    9354:	00002020 	.word	0x00002020
    9358:	5252453e 	.word	0x5252453e
    935c:	72615020 	.word	0x72615020
    9360:	676e6973 	.word	0x676e6973
    9364:	4f534a20 	.word	0x4f534a20
    9368:	55203a4e 	.word	0x55203a4e
    936c:	6f6e6b6e 	.word	0x6f6e6b6e
    9370:	6b206e77 	.word	0x6b206e77
    9374:	69207965 	.word	0x69207965
    9378:	534a206e 	.word	0x534a206e
    937c:	6f204e4f 	.word	0x6f204e4f
    9380:	63656a62 	.word	0x63656a62
    9384:	0a0d2e74 	.word	0x0a0d2e74
	...
