
notmain.elf:     file format elf32-littlearm


Disassembly of section .text:

00008000 <_start>:
    8000:	e3a0d902 	mov	sp, #32768	@ 0x8000
    8004:	eb000182 	bl	8614 <notmain>

00008008 <hang>:
    8008:	eafffffe 	b	8008 <hang>

0000800c <PUT32>:
    800c:	e5801000 	str	r1, [r0]
    8010:	e12fff1e 	bx	lr

00008014 <GET32>:
    8014:	e5900000 	ldr	r0, [r0]
    8018:	e12fff1e 	bx	lr

0000801c <dummy>:
    801c:	e12fff1e 	bx	lr

00008020 <jsmn_parse>:
    8020:	e92d4ff0 	push	{r4, r5, r6, r7, r8, r9, sl, fp, lr}
    8024:	e5904000 	ldr	r4, [r0]
    8028:	e1520004 	cmp	r2, r4
    802c:	e1a0c000 	mov	ip, r0
    8030:	e59d9024 	ldr	r9, [sp, #36]	@ 0x24
    8034:	e5900004 	ldr	r0, [r0, #4]
    8038:	9a0000cf 	bls	837c <jsmn_parse+0x35c>
    803c:	e1a08000 	mov	r8, r0
    8040:	e1a00001 	mov	r0, r1
    8044:	ea00000f 	b	8088 <jsmn_parse+0x68>
    8048:	e3510022 	cmp	r1, #34	@ 0x22
    804c:	0a000050 	beq	8194 <jsmn_parse+0x174>
    8050:	8a00002d 	bhi	810c <jsmn_parse+0xec>
    8054:	e2411009 	sub	r1, r1, #9
    8058:	e20110ff 	and	r1, r1, #255	@ 0xff
    805c:	e3510017 	cmp	r1, #23
    8060:	8a00008e 	bhi	82a0 <jsmn_parse+0x280>
    8064:	e59fe524 	ldr	lr, [pc, #1316]	@ 8590 <jsmn_parse+0x570>
    8068:	e1a0113e 	lsr	r1, lr, r1
    806c:	e3110001 	tst	r1, #1
    8070:	0a00008a 	beq	82a0 <jsmn_parse+0x280>
    8074:	e59c4000 	ldr	r4, [ip]
    8078:	e2844001 	add	r4, r4, #1
    807c:	e1520004 	cmp	r2, r4
    8080:	e58c4000 	str	r4, [ip]
    8084:	9a0000bb 	bls	8378 <jsmn_parse+0x358>
    8088:	e7d01004 	ldrb	r1, [r0, r4]
    808c:	e3510000 	cmp	r1, #0
    8090:	0a0000b8 	beq	8378 <jsmn_parse+0x358>
    8094:	e351003a 	cmp	r1, #58	@ 0x3a
    8098:	0a0000e8 	beq	8440 <jsmn_parse+0x420>
    809c:	9affffe9 	bls	8048 <jsmn_parse+0x28>
    80a0:	e351007b 	cmp	r1, #123	@ 0x7b
    80a4:	0a0000c9 	beq	83d0 <jsmn_parse+0x3b0>
    80a8:	8a0000ea 	bhi	8458 <jsmn_parse+0x438>
    80ac:	e351005b 	cmp	r1, #91	@ 0x5b
    80b0:	0a0000c6 	beq	83d0 <jsmn_parse+0x3b0>
    80b4:	e351005d 	cmp	r1, #93	@ 0x5d
    80b8:	1a000078 	bne	82a0 <jsmn_parse+0x280>
    80bc:	e3530000 	cmp	r3, #0
    80c0:	0affffeb 	beq	8074 <jsmn_parse+0x54>
    80c4:	e3a06002 	mov	r6, #2
    80c8:	e59c5004 	ldr	r5, [ip, #4]
    80cc:	e2555001 	subs	r5, r5, #1
    80d0:	4a00012b 	bmi	8584 <jsmn_parse+0x564>
    80d4:	e0831205 	add	r1, r3, r5, lsl #4
    80d8:	e591e004 	ldr	lr, [r1, #4]
    80dc:	e37e0001 	cmn	lr, #1
    80e0:	0a000002 	beq	80f0 <jsmn_parse+0xd0>
    80e4:	e591e008 	ldr	lr, [r1, #8]
    80e8:	e37e0001 	cmn	lr, #1
    80ec:	0a0000ec 	beq	84a4 <jsmn_parse+0x484>
    80f0:	e2455001 	sub	r5, r5, #1
    80f4:	e3750001 	cmn	r5, #1
    80f8:	e2411010 	sub	r1, r1, #16
    80fc:	1afffff5 	bne	80d8 <jsmn_parse+0xb8>
    8100:	e3e00001 	mvn	r0, #1
    8104:	e8bd4ff0 	pop	{r4, r5, r6, r7, r8, r9, sl, fp, lr}
    8108:	e12fff1e 	bx	lr
    810c:	e351002c 	cmp	r1, #44	@ 0x2c
    8110:	1a000062 	bne	82a0 <jsmn_parse+0x280>
    8114:	e59c4000 	ldr	r4, [ip]
    8118:	e3530000 	cmp	r3, #0
    811c:	e2844001 	add	r4, r4, #1
    8120:	0affffd5 	beq	807c <jsmn_parse+0x5c>
    8124:	e59c1008 	ldr	r1, [ip, #8]
    8128:	e3710001 	cmn	r1, #1
    812c:	0affffd2 	beq	807c <jsmn_parse+0x5c>
    8130:	e7d31201 	ldrb	r1, [r3, r1, lsl #4]
    8134:	e2411001 	sub	r1, r1, #1
    8138:	e3510001 	cmp	r1, #1
    813c:	9affffce 	bls	807c <jsmn_parse+0x5c>
    8140:	e59ce004 	ldr	lr, [ip, #4]
    8144:	e25e5001 	subs	r5, lr, #1
    8148:	4affffcb 	bmi	807c <jsmn_parse+0x5c>
    814c:	e083e20e 	add	lr, r3, lr, lsl #4
    8150:	ea000003 	b	8164 <jsmn_parse+0x144>
    8154:	e2455001 	sub	r5, r5, #1
    8158:	e3750001 	cmn	r5, #1
    815c:	e24ee010 	sub	lr, lr, #16
    8160:	0affffc5 	beq	807c <jsmn_parse+0x5c>
    8164:	e55e1010 	ldrb	r1, [lr, #-16]
    8168:	e2411001 	sub	r1, r1, #1
    816c:	e3510001 	cmp	r1, #1
    8170:	8afffff7 	bhi	8154 <jsmn_parse+0x134>
    8174:	e51e100c 	ldr	r1, [lr, #-12]
    8178:	e3710001 	cmn	r1, #1
    817c:	0afffff4 	beq	8154 <jsmn_parse+0x134>
    8180:	e51e1008 	ldr	r1, [lr, #-8]
    8184:	e3710001 	cmn	r1, #1
    8188:	1afffff1 	bne	8154 <jsmn_parse+0x134>
    818c:	e58c5008 	str	r5, [ip, #8]
    8190:	eaffffb9 	b	807c <jsmn_parse+0x5c>
    8194:	e2845001 	add	r5, r4, #1
    8198:	e1520005 	cmp	r2, r5
    819c:	e1a01005 	mov	r1, r5
    81a0:	e58c5000 	str	r5, [ip]
    81a4:	9a000039 	bls	8290 <jsmn_parse+0x270>
    81a8:	e1a06008 	mov	r6, r8
    81ac:	e1a0e003 	mov	lr, r3
    81b0:	ea000004 	b	81c8 <jsmn_parse+0x1a8>
    81b4:	e59c1000 	ldr	r1, [ip]
    81b8:	e2811001 	add	r1, r1, #1
    81bc:	e1520001 	cmp	r2, r1
    81c0:	e58c1000 	str	r1, [ip]
    81c4:	9a000031 	bls	8290 <jsmn_parse+0x270>
    81c8:	e7d03001 	ldrb	r3, [r0, r1]
    81cc:	e3530000 	cmp	r3, #0
    81d0:	0a00002e 	beq	8290 <jsmn_parse+0x270>
    81d4:	e3530022 	cmp	r3, #34	@ 0x22
    81d8:	0a0000c6 	beq	84f8 <jsmn_parse+0x4d8>
    81dc:	e353005c 	cmp	r3, #92	@ 0x5c
    81e0:	1afffff3 	bne	81b4 <jsmn_parse+0x194>
    81e4:	e2813001 	add	r3, r1, #1
    81e8:	e1520003 	cmp	r2, r3
    81ec:	9afffff0 	bls	81b4 <jsmn_parse+0x194>
    81f0:	e58c3000 	str	r3, [ip]
    81f4:	e0807003 	add	r7, r0, r3
    81f8:	e7d03003 	ldrb	r3, [r0, r3]
    81fc:	e3530075 	cmp	r3, #117	@ 0x75
    8200:	8a000036 	bhi	82e0 <jsmn_parse+0x2c0>
    8204:	e353005b 	cmp	r3, #91	@ 0x5b
    8208:	9a000098 	bls	8470 <jsmn_parse+0x450>
    820c:	e3a0a001 	mov	sl, #1
    8210:	e59fb37c 	ldr	fp, [pc, #892]	@ 8594 <jsmn_parse+0x574>
    8214:	e243805c 	sub	r8, r3, #92	@ 0x5c
    8218:	e20880ff 	and	r8, r8, #255	@ 0xff
    821c:	e01b881a 	ands	r8, fp, sl, lsl r8
    8220:	1a000096 	bne	8480 <jsmn_parse+0x460>
    8224:	e3530075 	cmp	r3, #117	@ 0x75
    8228:	1a00002c 	bne	82e0 <jsmn_parse+0x2c0>
    822c:	e1a0a006 	mov	sl, r6
    8230:	e1a0b000 	mov	fp, r0
    8234:	e2813002 	add	r3, r1, #2
    8238:	e58c3000 	str	r3, [ip]
    823c:	e2811006 	add	r1, r1, #6
    8240:	e1520003 	cmp	r2, r3
    8244:	0a000011 	beq	8290 <jsmn_parse+0x270>
    8248:	e5f70001 	ldrb	r0, [r7, #1]!
    824c:	e3c06020 	bic	r6, r0, #32
    8250:	e3500000 	cmp	r0, #0
    8254:	e2466041 	sub	r6, r6, #65	@ 0x41
    8258:	e2408030 	sub	r8, r0, #48	@ 0x30
    825c:	0a0000c2 	beq	856c <jsmn_parse+0x54c>
    8260:	e3560005 	cmp	r6, #5
    8264:	83580009 	cmphi	r8, #9
    8268:	e2833001 	add	r3, r3, #1
    826c:	8a00001b 	bhi	82e0 <jsmn_parse+0x2c0>
    8270:	e1530001 	cmp	r3, r1
    8274:	e58c3000 	str	r3, [ip]
    8278:	1afffff0 	bne	8240 <jsmn_parse+0x220>
    827c:	e1520001 	cmp	r2, r1
    8280:	e1a0600a 	mov	r6, sl
    8284:	e1a0000b 	mov	r0, fp
    8288:	e58c1000 	str	r1, [ip]
    828c:	8affffcd 	bhi	81c8 <jsmn_parse+0x1a8>
    8290:	e58c4000 	str	r4, [ip]
    8294:	e3e00002 	mvn	r0, #2
    8298:	e8bd4ff0 	pop	{r4, r5, r6, r7, r8, r9, sl, fp, lr}
    829c:	e12fff1e 	bx	lr
    82a0:	e59ce000 	ldr	lr, [ip]
    82a4:	e152000e 	cmp	r2, lr
    82a8:	9a000018 	bls	8310 <jsmn_parse+0x2f0>
    82ac:	e24e5001 	sub	r5, lr, #1
    82b0:	e0805005 	add	r5, r0, r5
    82b4:	e5f51001 	ldrb	r1, [r5, #1]!
    82b8:	e3510000 	cmp	r1, #0
    82bc:	0a000013 	beq	8310 <jsmn_parse+0x2f0>
    82c0:	e351003a 	cmp	r1, #58	@ 0x3a
    82c4:	8a000007 	bhi	82e8 <jsmn_parse+0x2c8>
    82c8:	e351001f 	cmp	r1, #31
    82cc:	8a00006d 	bhi	8488 <jsmn_parse+0x468>
    82d0:	e351000a 	cmp	r1, #10
    82d4:	9a000039 	bls	83c0 <jsmn_parse+0x3a0>
    82d8:	e351000d 	cmp	r1, #13
    82dc:	0a00000b 	beq	8310 <jsmn_parse+0x2f0>
    82e0:	e58c4000 	str	r4, [ip]
    82e4:	eaffff85 	b	8100 <jsmn_parse+0xe0>
    82e8:	e20160df 	and	r6, r1, #223	@ 0xdf
    82ec:	e356005d 	cmp	r6, #93	@ 0x5d
    82f0:	e2411020 	sub	r1, r1, #32
    82f4:	0a000005 	beq	8310 <jsmn_parse+0x2f0>
    82f8:	e351005e 	cmp	r1, #94	@ 0x5e
    82fc:	8afffff7 	bhi	82e0 <jsmn_parse+0x2c0>
    8300:	e28ee001 	add	lr, lr, #1
    8304:	e152000e 	cmp	r2, lr
    8308:	e58ce000 	str	lr, [ip]
    830c:	1affffe8 	bne	82b4 <jsmn_parse+0x294>
    8310:	e3530000 	cmp	r3, #0
    8314:	01a0400e 	moveq	r4, lr
    8318:	02888001 	addeq	r8, r8, #1
    831c:	0affff56 	beq	807c <jsmn_parse+0x5c>
    8320:	e59c1004 	ldr	r1, [ip, #4]
    8324:	e1590001 	cmp	r9, r1
    8328:	9a00008c 	bls	8560 <jsmn_parse+0x540>
    832c:	e2816001 	add	r6, r1, #1
    8330:	e58c6004 	str	r6, [ip, #4]
    8334:	e3a06000 	mov	r6, #0
    8338:	e0835201 	add	r5, r3, r1, lsl #4
    833c:	e585600c 	str	r6, [r5, #12]
    8340:	e3a06008 	mov	r6, #8
    8344:	e7c36201 	strb	r6, [r3, r1, lsl #4]
    8348:	e59c1008 	ldr	r1, [ip, #8]
    834c:	e3710001 	cmn	r1, #1
    8350:	e9854010 	stmib	r5, {r4, lr}
    8354:	e2888001 	add	r8, r8, #1
    8358:	10831201 	addne	r1, r3, r1, lsl #4
    835c:	1591400c 	ldrne	r4, [r1, #12]
    8360:	12844001 	addne	r4, r4, #1
    8364:	1581400c 	strne	r4, [r1, #12]
    8368:	e1a0400e 	mov	r4, lr
    836c:	e1520004 	cmp	r2, r4
    8370:	e58c4000 	str	r4, [ip]
    8374:	8affff43 	bhi	8088 <jsmn_parse+0x68>
    8378:	e1a00008 	mov	r0, r8
    837c:	e3530000 	cmp	r3, #0
    8380:	0affff5f 	beq	8104 <jsmn_parse+0xe4>
    8384:	e59c2004 	ldr	r2, [ip, #4]
    8388:	e2522001 	subs	r2, r2, #1
    838c:	4affff5c 	bmi	8104 <jsmn_parse+0xe4>
    8390:	e283c004 	add	ip, r3, #4
    8394:	e2833008 	add	r3, r3, #8
    8398:	e79c1202 	ldr	r1, [ip, r2, lsl #4]
    839c:	e3710001 	cmn	r1, #1
    83a0:	0a000002 	beq	83b0 <jsmn_parse+0x390>
    83a4:	e7931202 	ldr	r1, [r3, r2, lsl #4]
    83a8:	e3710001 	cmn	r1, #1
    83ac:	0affffb8 	beq	8294 <jsmn_parse+0x274>
    83b0:	e2522001 	subs	r2, r2, #1
    83b4:	2afffff7 	bcs	8398 <jsmn_parse+0x378>
    83b8:	e8bd4ff0 	pop	{r4, r5, r6, r7, r8, r9, sl, fp, lr}
    83bc:	e12fff1e 	bx	lr
    83c0:	e3510008 	cmp	r1, #8
    83c4:	8affffd1 	bhi	8310 <jsmn_parse+0x2f0>
    83c8:	e58c4000 	str	r4, [ip]
    83cc:	eaffff4b 	b	8100 <jsmn_parse+0xe0>
    83d0:	e3530000 	cmp	r3, #0
    83d4:	e2888001 	add	r8, r8, #1
    83d8:	0affff25 	beq	8074 <jsmn_parse+0x54>
    83dc:	e59ce004 	ldr	lr, [ip, #4]
    83e0:	e159000e 	cmp	r9, lr
    83e4:	9a00005e 	bls	8564 <jsmn_parse+0x544>
    83e8:	e28e7001 	add	r7, lr, #1
    83ec:	e58c7004 	str	r7, [ip, #4]
    83f0:	e3e07000 	mvn	r7, #0
    83f4:	e083620e 	add	r6, r3, lr, lsl #4
    83f8:	e59c5008 	ldr	r5, [ip, #8]
    83fc:	e5867008 	str	r7, [r6, #8]
    8400:	e3a07000 	mov	r7, #0
    8404:	e3750001 	cmn	r5, #1
    8408:	e586700c 	str	r7, [r6, #12]
    840c:	10835205 	addne	r5, r3, r5, lsl #4
    8410:	1595700c 	ldrne	r7, [r5, #12]
    8414:	12877001 	addne	r7, r7, #1
    8418:	1585700c 	strne	r7, [r5, #12]
    841c:	e351007b 	cmp	r1, #123	@ 0x7b
    8420:	13a01002 	movne	r1, #2
    8424:	03a01001 	moveq	r1, #1
    8428:	e7c3120e 	strb	r1, [r3, lr, lsl #4]
    842c:	e5864004 	str	r4, [r6, #4]
    8430:	e59c4000 	ldr	r4, [ip]
    8434:	e58ce008 	str	lr, [ip, #8]
    8438:	e2844001 	add	r4, r4, #1
    843c:	eaffff0e 	b	807c <jsmn_parse+0x5c>
    8440:	e59c1004 	ldr	r1, [ip, #4]
    8444:	e59c4000 	ldr	r4, [ip]
    8448:	e2411001 	sub	r1, r1, #1
    844c:	e58c1008 	str	r1, [ip, #8]
    8450:	e2844001 	add	r4, r4, #1
    8454:	eaffff08 	b	807c <jsmn_parse+0x5c>
    8458:	e351007d 	cmp	r1, #125	@ 0x7d
    845c:	1affff8f 	bne	82a0 <jsmn_parse+0x280>
    8460:	e3530000 	cmp	r3, #0
    8464:	13a06001 	movne	r6, #1
    8468:	0affff01 	beq	8074 <jsmn_parse+0x54>
    846c:	eaffff15 	b	80c8 <jsmn_parse+0xa8>
    8470:	e3530022 	cmp	r3, #34	@ 0x22
    8474:	0a000001 	beq	8480 <jsmn_parse+0x460>
    8478:	e353002f 	cmp	r3, #47	@ 0x2f
    847c:	1affff97 	bne	82e0 <jsmn_parse+0x2c0>
    8480:	e2811002 	add	r1, r1, #2
    8484:	eaffff4c 	b	81bc <jsmn_parse+0x19c>
    8488:	e59f6108 	ldr	r6, [pc, #264]	@ 8598 <jsmn_parse+0x578>
    848c:	e2411020 	sub	r1, r1, #32
    8490:	e20110ff 	and	r1, r1, #255	@ 0xff
    8494:	e1a06136 	lsr	r6, r6, r1
    8498:	e3160001 	tst	r6, #1
    849c:	0affff97 	beq	8300 <jsmn_parse+0x2e0>
    84a0:	eaffff9a 	b	8310 <jsmn_parse+0x2f0>
    84a4:	e5d17000 	ldrb	r7, [r1]
    84a8:	e1570006 	cmp	r7, r6
    84ac:	1affff13 	bne	8100 <jsmn_parse+0xe0>
    84b0:	e2844001 	add	r4, r4, #1
    84b4:	e58ce008 	str	lr, [ip, #8]
    84b8:	e5814008 	str	r4, [r1, #8]
    84bc:	e283e004 	add	lr, r3, #4
    84c0:	e2834008 	add	r4, r3, #8
    84c4:	ea000001 	b	84d0 <jsmn_parse+0x4b0>
    84c8:	e2555001 	subs	r5, r5, #1
    84cc:	3afffee8 	bcc	8074 <jsmn_parse+0x54>
    84d0:	e79e1205 	ldr	r1, [lr, r5, lsl #4]
    84d4:	e3710001 	cmn	r1, #1
    84d8:	0afffffa 	beq	84c8 <jsmn_parse+0x4a8>
    84dc:	e7941205 	ldr	r1, [r4, r5, lsl #4]
    84e0:	e3710001 	cmn	r1, #1
    84e4:	1afffff7 	bne	84c8 <jsmn_parse+0x4a8>
    84e8:	e59c4000 	ldr	r4, [ip]
    84ec:	e58c5008 	str	r5, [ip, #8]
    84f0:	e2844001 	add	r4, r4, #1
    84f4:	eafffee0 	b	807c <jsmn_parse+0x5c>
    84f8:	e35e0000 	cmp	lr, #0
    84fc:	e1a0300e 	mov	r3, lr
    8500:	0a00001d 	beq	857c <jsmn_parse+0x55c>
    8504:	e59ce004 	ldr	lr, [ip, #4]
    8508:	e159000e 	cmp	r9, lr
    850c:	9a000013 	bls	8560 <jsmn_parse+0x540>
    8510:	e2868001 	add	r8, r6, #1
    8514:	e3a06004 	mov	r6, #4
    8518:	e3a07000 	mov	r7, #0
    851c:	e083461e 	add	r4, r3, lr, lsl r6
    8520:	e28ea001 	add	sl, lr, #1
    8524:	e58ca004 	str	sl, [ip, #4]
    8528:	e584700c 	str	r7, [r4, #12]
    852c:	e7c3620e 	strb	r6, [r3, lr, lsl #4]
    8530:	e5841008 	str	r1, [r4, #8]
    8534:	e59c1008 	ldr	r1, [ip, #8]
    8538:	e3710001 	cmn	r1, #1
    853c:	e5845004 	str	r5, [r4, #4]
    8540:	0afffecb 	beq	8074 <jsmn_parse+0x54>
    8544:	e0831201 	add	r1, r3, r1, lsl #4
    8548:	e591e00c 	ldr	lr, [r1, #12]
    854c:	e59c4000 	ldr	r4, [ip]
    8550:	e28ee001 	add	lr, lr, #1
    8554:	e581e00c 	str	lr, [r1, #12]
    8558:	e2844001 	add	r4, r4, #1
    855c:	eafffec6 	b	807c <jsmn_parse+0x5c>
    8560:	e58c4000 	str	r4, [ip]
    8564:	e3e00000 	mvn	r0, #0
    8568:	eafffee5 	b	8104 <jsmn_parse+0xe4>
    856c:	e1a0600a 	mov	r6, sl
    8570:	e1a0000b 	mov	r0, fp
    8574:	e1a01003 	mov	r1, r3
    8578:	eaffff0f 	b	81bc <jsmn_parse+0x19c>
    857c:	e2868001 	add	r8, r6, #1
    8580:	eafffebb 	b	8074 <jsmn_parse+0x54>
    8584:	e3750001 	cmn	r5, #1
    8588:	1afffeb9 	bne	8074 <jsmn_parse+0x54>
    858c:	eafffedb 	b	8100 <jsmn_parse+0xe0>
    8590:	00800013 	addeq	r0, r0, r3, lsl r0
    8594:	01440441 	cmpeq	r4, r1, asr #8
    8598:	04001001 	streq	r1, [r0], #-1

0000859c <jsmn_init>:
    859c:	e3a03000 	mov	r3, #0
    85a0:	e3e02000 	mvn	r2, #0
    85a4:	e5803000 	str	r3, [r0]
    85a8:	e5803004 	str	r3, [r0, #4]
    85ac:	e5802008 	str	r2, [r0, #8]
    85b0:	e12fff1e 	bx	lr

000085b4 <DoublePulseControl>:
    85b4:	e92d4010 	push	{r4, lr}
    85b8:	e59f4050 	ldr	r4, [pc, #80]	@ 8610 <DoublePulseControl+0x5c>
    85bc:	e3a01000 	mov	r1, #0
    85c0:	e3a00012 	mov	r0, #18
    85c4:	eb0001a4 	bl	8c5c <gpio_write>
    85c8:	e5940000 	ldr	r0, [r4]
    85cc:	eb0001bb 	bl	8cc0 <delay_us>
    85d0:	e3a01001 	mov	r1, #1
    85d4:	e3a00012 	mov	r0, #18
    85d8:	eb00019f 	bl	8c5c <gpio_write>
    85dc:	e5940004 	ldr	r0, [r4, #4]
    85e0:	eb0001b6 	bl	8cc0 <delay_us>
    85e4:	e3a01000 	mov	r1, #0
    85e8:	e3a00012 	mov	r0, #18
    85ec:	eb00019a 	bl	8c5c <gpio_write>
    85f0:	e5940008 	ldr	r0, [r4, #8]
    85f4:	eb0001b1 	bl	8cc0 <delay_us>
    85f8:	e3a01001 	mov	r1, #1
    85fc:	e3a00012 	mov	r0, #18
    8600:	eb000195 	bl	8c5c <gpio_write>
    8604:	e594000c 	ldr	r0, [r4, #12]
    8608:	eb0001ac 	bl	8cc0 <delay_us>
    860c:	eaffffea 	b	85bc <DoublePulseControl+0x8>
    8610:	00009148 	andeq	r9, r0, r8, asr #2

00008614 <notmain>:
    8614:	e3e03000 	mvn	r3, #0
    8618:	e3a00000 	mov	r0, #0
    861c:	e3a01000 	mov	r1, #0
    8620:	e92d40f0 	push	{r4, r5, r6, r7, lr}
    8624:	e24dde72 	sub	sp, sp, #1824	@ 0x720
    8628:	e24dd004 	sub	sp, sp, #4
    862c:	e58d3010 	str	r3, [sp, #16]
    8630:	e58d0008 	str	r0, [sp, #8]
    8634:	e58d100c 	str	r1, [sp, #12]
    8638:	eb0000aa 	bl	88e8 <uart_init>
    863c:	e3a01001 	mov	r1, #1
    8640:	e3a00012 	mov	r0, #18
    8644:	eb000136 	bl	8b24 <gpio_init>
    8648:	e3a01000 	mov	r1, #0
    864c:	e3a00012 	mov	r0, #18
    8650:	eb000181 	bl	8c5c <gpio_write>
    8654:	e3a00f4b 	mov	r0, #300	@ 0x12c
    8658:	eb000190 	bl	8ca0 <delay>
    865c:	e59f0234 	ldr	r0, [pc, #564]	@ 8898 <notmain+0x284>
    8660:	eb0000c9 	bl	898c <uart_puts>
    8664:	e59f0230 	ldr	r0, [pc, #560]	@ 889c <notmain+0x288>
    8668:	eb0000c7 	bl	898c <uart_puts>
    866c:	e59f022c 	ldr	r0, [pc, #556]	@ 88a0 <notmain+0x28c>
    8670:	eb0000c5 	bl	898c <uart_puts>
    8674:	e3a00012 	mov	r0, #18
    8678:	eb0000d0 	bl	89c0 <uart_put_uint>
    867c:	e59f0220 	ldr	r0, [pc, #544]	@ 88a4 <notmain+0x290>
    8680:	eb0000c1 	bl	898c <uart_puts>
    8684:	e59f021c 	ldr	r0, [pc, #540]	@ 88a8 <notmain+0x294>
    8688:	eb0000bf 	bl	898c <uart_puts>
    868c:	e59f0218 	ldr	r0, [pc, #536]	@ 88ac <notmain+0x298>
    8690:	eb0000bd 	bl	898c <uart_puts>
    8694:	e3a04064 	mov	r4, #100	@ 0x64
    8698:	e3a01064 	mov	r1, #100	@ 0x64
    869c:	e59f220c 	ldr	r2, [pc, #524]	@ 88b0 <notmain+0x29c>
    86a0:	e28d0018 	add	r0, sp, #24
    86a4:	eb0000f9 	bl	8a90 <uart_read_line_blocking>
    86a8:	e3500000 	cmp	r0, #0
    86ac:	0a000037 	beq	8790 <notmain+0x17c>
    86b0:	e28d0018 	add	r0, sp, #24
    86b4:	eb0000b4 	bl	898c <uart_puts>
    86b8:	e59f01f4 	ldr	r0, [pc, #500]	@ 88b4 <notmain+0x2a0>
    86bc:	eb0000b2 	bl	898c <uart_puts>
    86c0:	e28d0018 	add	r0, sp, #24
    86c4:	eb000186 	bl	8ce4 <strlen>
    86c8:	e58d4000 	str	r4, [sp]
    86cc:	e1a02000 	mov	r2, r0
    86d0:	e28d30e0 	add	r3, sp, #224	@ 0xe0
    86d4:	e28d1018 	add	r1, sp, #24
    86d8:	e28d0008 	add	r0, sp, #8
    86dc:	ebfffe4f 	bl	8020 <jsmn_parse>
    86e0:	e2507000 	subs	r7, r0, #0
    86e4:	ba00003f 	blt	87e8 <notmain+0x1d4>
    86e8:	e5dd50e0 	ldrb	r5, [sp, #224]	@ 0xe0
    86ec:	e3550001 	cmp	r5, #1
    86f0:	1a000039 	bne	87dc <notmain+0x1c8>
    86f4:	e3570001 	cmp	r7, #1
    86f8:	c28d40e0 	addgt	r4, sp, #224	@ 0xe0
    86fc:	ca000003 	bgt	8710 <notmain+0xfc>
    8700:	ea000022 	b	8790 <notmain+0x17c>
    8704:	e1570005 	cmp	r7, r5
    8708:	e2844010 	add	r4, r4, #16
    870c:	0a00001f 	beq	8790 <notmain+0x17c>
    8710:	e5d43010 	ldrb	r3, [r4, #16]
    8714:	e3530004 	cmp	r3, #4
    8718:	e2855001 	add	r5, r5, #1
    871c:	1afffff8 	bne	8704 <notmain+0xf0>
    8720:	e594301c 	ldr	r3, [r4, #28]
    8724:	e3530001 	cmp	r3, #1
    8728:	1afffff5 	bne	8704 <notmain+0xf0>
    872c:	e2841014 	add	r1, r4, #20
    8730:	e8910042 	ldm	r1, {r1, r6}
    8734:	e28d3018 	add	r3, sp, #24
    8738:	e0466001 	sub	r6, r6, r1
    873c:	e1a02006 	mov	r2, r6
    8740:	e0831001 	add	r1, r3, r1
    8744:	e28d007c 	add	r0, sp, #124	@ 0x7c
    8748:	eb000180 	bl	8d50 <strncpy>
    874c:	e3a03000 	mov	r3, #0
    8750:	e2862e72 	add	r2, r6, #1824	@ 0x720
    8754:	e59f115c 	ldr	r1, [pc, #348]	@ 88b8 <notmain+0x2a4>
    8758:	e08d6002 	add	r6, sp, r2
    875c:	e28d007c 	add	r0, sp, #124	@ 0x7c
    8760:	e54636a4 	strb	r3, [r6, #-1700]	@ 0xfffff95c
    8764:	eb000168 	bl	8d0c <strcmp>
    8768:	e2501000 	subs	r1, r0, #0
    876c:	1a000008 	bne	8794 <notmain+0x180>
    8770:	e5940024 	ldr	r0, [r4, #36]	@ 0x24
    8774:	e28d3018 	add	r3, sp, #24
    8778:	e0830000 	add	r0, r3, r0
    877c:	e3a0200a 	mov	r2, #10
    8780:	eb00018b 	bl	8db4 <strtoul>
    8784:	e59f3130 	ldr	r3, [pc, #304]	@ 88bc <notmain+0x2a8>
    8788:	e5830000 	str	r0, [r3]
    878c:	eaffffdc 	b	8704 <notmain+0xf0>
    8790:	ebffff87 	bl	85b4 <DoublePulseControl>
    8794:	e59f1124 	ldr	r1, [pc, #292]	@ 88c0 <notmain+0x2ac>
    8798:	e28d007c 	add	r0, sp, #124	@ 0x7c
    879c:	eb00015a 	bl	8d0c <strcmp>
    87a0:	e2501000 	subs	r1, r0, #0
    87a4:	0a00001a 	beq	8814 <notmain+0x200>
    87a8:	e59f1114 	ldr	r1, [pc, #276]	@ 88c4 <notmain+0x2b0>
    87ac:	e28d007c 	add	r0, sp, #124	@ 0x7c
    87b0:	eb000155 	bl	8d0c <strcmp>
    87b4:	e2501000 	subs	r1, r0, #0
    87b8:	1a000020 	bne	8840 <notmain+0x22c>
    87bc:	e5940024 	ldr	r0, [r4, #36]	@ 0x24
    87c0:	e28d3018 	add	r3, sp, #24
    87c4:	e0830000 	add	r0, r3, r0
    87c8:	e3a0200a 	mov	r2, #10
    87cc:	eb000178 	bl	8db4 <strtoul>
    87d0:	e59f30e4 	ldr	r3, [pc, #228]	@ 88bc <notmain+0x2a8>
    87d4:	e5830008 	str	r0, [r3, #8]
    87d8:	eaffffc9 	b	8704 <notmain+0xf0>
    87dc:	e59f00e4 	ldr	r0, [pc, #228]	@ 88c8 <notmain+0x2b4>
    87e0:	eb000069 	bl	898c <uart_puts>
    87e4:	eaffffab 	b	8698 <notmain+0x84>
    87e8:	e59f00dc 	ldr	r0, [pc, #220]	@ 88cc <notmain+0x2b8>
    87ec:	eb000066 	bl	898c <uart_puts>
    87f0:	e3770002 	cmn	r7, #2
    87f4:	0a00000e 	beq	8834 <notmain+0x220>
    87f8:	e3770001 	cmn	r7, #1
    87fc:	0a00001f 	beq	8880 <notmain+0x26c>
    8800:	e3770003 	cmn	r7, #3
    8804:	0a00001a 	beq	8874 <notmain+0x260>
    8808:	e59f00c0 	ldr	r0, [pc, #192]	@ 88d0 <notmain+0x2bc>
    880c:	eb00005e 	bl	898c <uart_puts>
    8810:	eaffffa0 	b	8698 <notmain+0x84>
    8814:	e5940024 	ldr	r0, [r4, #36]	@ 0x24
    8818:	e28d3018 	add	r3, sp, #24
    881c:	e0830000 	add	r0, r3, r0
    8820:	e3a0200a 	mov	r2, #10
    8824:	eb000162 	bl	8db4 <strtoul>
    8828:	e59f308c 	ldr	r3, [pc, #140]	@ 88bc <notmain+0x2a8>
    882c:	e5830004 	str	r0, [r3, #4]
    8830:	eaffffb3 	b	8704 <notmain+0xf0>
    8834:	e59f0098 	ldr	r0, [pc, #152]	@ 88d4 <notmain+0x2c0>
    8838:	eb000053 	bl	898c <uart_puts>
    883c:	eaffff95 	b	8698 <notmain+0x84>
    8840:	e59f1090 	ldr	r1, [pc, #144]	@ 88d8 <notmain+0x2c4>
    8844:	e28d007c 	add	r0, sp, #124	@ 0x7c
    8848:	eb00012f 	bl	8d0c <strcmp>
    884c:	e2501000 	subs	r1, r0, #0
    8850:	1a00000d 	bne	888c <notmain+0x278>
    8854:	e5940024 	ldr	r0, [r4, #36]	@ 0x24
    8858:	e28d3018 	add	r3, sp, #24
    885c:	e0830000 	add	r0, r3, r0
    8860:	e3a0200a 	mov	r2, #10
    8864:	eb000152 	bl	8db4 <strtoul>
    8868:	e59f304c 	ldr	r3, [pc, #76]	@ 88bc <notmain+0x2a8>
    886c:	e583000c 	str	r0, [r3, #12]
    8870:	eaffffa3 	b	8704 <notmain+0xf0>
    8874:	e59f0060 	ldr	r0, [pc, #96]	@ 88dc <notmain+0x2c8>
    8878:	eb000043 	bl	898c <uart_puts>
    887c:	eaffff85 	b	8698 <notmain+0x84>
    8880:	e59f0058 	ldr	r0, [pc, #88]	@ 88e0 <notmain+0x2cc>
    8884:	eb000040 	bl	898c <uart_puts>
    8888:	eaffff82 	b	8698 <notmain+0x84>
    888c:	e59f0050 	ldr	r0, [pc, #80]	@ 88e4 <notmain+0x2d0>
    8890:	eb00003d 	bl	898c <uart_puts>
    8894:	eaffff9a 	b	8704 <notmain+0xf0>
    8898:	00008e08 	andeq	r8, r0, r8, lsl #28
    889c:	00008e3c 	andeq	r8, r0, ip, lsr lr
    88a0:	00008eb8 			@ <UNDEFINED> instruction: 0x00008eb8
    88a4:	00008f14 	andeq	r8, r0, r4, lsl pc
    88a8:	00008f54 	andeq	r8, r0, r4, asr pc
    88ac:	00008fa4 	andeq	r8, r0, r4, lsr #31
    88b0:	00002710 	andeq	r2, r0, r0, lsl r7
    88b4:	00008ff4 			@ <UNDEFINED> instruction: 0x00008ff4
    88b8:	000090e0 	andeq	r9, r0, r0, ror #1
    88bc:	00009148 	andeq	r9, r0, r8, asr #2
    88c0:	000090f0 			@ <UNDEFINED> instruction: 0x000090f0
    88c4:	000090fc 			@ <UNDEFINED> instruction: 0x000090fc
    88c8:	000090a4 	andeq	r9, r0, r4, lsr #1
    88cc:	00009010 	andeq	r9, r0, r0, lsl r0
    88d0:	00009094 	muleq	r0, r4, r0
    88d4:	00009048 	andeq	r9, r0, r8, asr #32
    88d8:	0000910c 	andeq	r9, r0, ip, lsl #2
    88dc:	0000906c 	andeq	r9, r0, ip, rrx
    88e0:	00009024 	andeq	r9, r0, r4, lsr #32
    88e4:	00009118 	andeq	r9, r0, r8, lsl r1

000088e8 <uart_init>:
    88e8:	e92d41f0 	push	{r4, r5, r6, r7, r8, lr}
    88ec:	e3a01001 	mov	r1, #1
    88f0:	e3a05000 	mov	r5, #0
    88f4:	e3a07003 	mov	r7, #3
    88f8:	e3a020c6 	mov	r2, #198	@ 0xc6
    88fc:	e59f4060 	ldr	r4, [pc, #96]	@ 8964 <uart_init+0x7c>
    8900:	e59f3060 	ldr	r3, [pc, #96]	@ 8968 <uart_init+0x80>
    8904:	e5845004 	str	r5, [r4, #4]
    8908:	e59f605c 	ldr	r6, [pc, #92]	@ 896c <uart_init+0x84>
    890c:	e5841004 	str	r1, [r4, #4]
    8910:	e5845060 	str	r5, [r4, #96]	@ 0x60
    8914:	e584704c 	str	r7, [r4, #76]	@ 0x4c
    8918:	e5845050 	str	r5, [r4, #80]	@ 0x50
    891c:	e5845044 	str	r5, [r4, #68]	@ 0x44
    8920:	e5842048 	str	r2, [r4, #72]	@ 0x48
    8924:	e5843068 	str	r3, [r4, #104]	@ 0x68
    8928:	e5963004 	ldr	r3, [r6, #4]
    892c:	e3c33a3f 	bic	r3, r3, #258048	@ 0x3f000
    8930:	e3833a12 	orr	r3, r3, #73728	@ 0x12000
    8934:	e5863004 	str	r3, [r6, #4]
    8938:	e3a00096 	mov	r0, #150	@ 0x96
    893c:	e5865094 	str	r5, [r6, #148]	@ 0x94
    8940:	eb0000d6 	bl	8ca0 <delay>
    8944:	e3a03903 	mov	r3, #49152	@ 0xc000
    8948:	e3a00096 	mov	r0, #150	@ 0x96
    894c:	e5863098 	str	r3, [r6, #152]	@ 0x98
    8950:	eb0000d2 	bl	8ca0 <delay>
    8954:	e5865098 	str	r5, [r6, #152]	@ 0x98
    8958:	e5847060 	str	r7, [r4, #96]	@ 0x60
    895c:	e8bd41f0 	pop	{r4, r5, r6, r7, r8, lr}
    8960:	e12fff1e 	bx	lr
    8964:	20215000 	eorcs	r5, r1, r0
    8968:	0000010e 	andeq	r0, r0, lr, lsl #2
    896c:	20200000 	eorcs	r0, r0, r0

00008970 <uart_send>:
    8970:	e59f2010 	ldr	r2, [pc, #16]	@ 8988 <uart_send+0x18>
    8974:	e5923054 	ldr	r3, [r2, #84]	@ 0x54
    8978:	e3130020 	tst	r3, #32
    897c:	0afffffc 	beq	8974 <uart_send+0x4>
    8980:	e5820040 	str	r0, [r2, #64]	@ 0x40
    8984:	e12fff1e 	bx	lr
    8988:	20215000 	eorcs	r5, r1, r0

0000898c <uart_puts>:
    898c:	e5d01000 	ldrb	r1, [r0]
    8990:	e3510000 	cmp	r1, #0
    8994:	012fff1e 	bxeq	lr
    8998:	e59f201c 	ldr	r2, [pc, #28]	@ 89bc <uart_puts+0x30>
    899c:	e5923054 	ldr	r3, [r2, #84]	@ 0x54
    89a0:	e3130020 	tst	r3, #32
    89a4:	0afffffc 	beq	899c <uart_puts+0x10>
    89a8:	e5821040 	str	r1, [r2, #64]	@ 0x40
    89ac:	e5f01001 	ldrb	r1, [r0, #1]!
    89b0:	e3510000 	cmp	r1, #0
    89b4:	1afffff8 	bne	899c <uart_puts+0x10>
    89b8:	e12fff1e 	bx	lr
    89bc:	20215000 	eorcs	r5, r1, r0

000089c0 <uart_put_uint>:
    89c0:	e3500000 	cmp	r0, #0
    89c4:	0a000020 	beq	8a4c <uart_put_uint+0x8c>
    89c8:	e3a02000 	mov	r2, #0
    89cc:	e92d4030 	push	{r4, r5, lr}
    89d0:	e59f5090 	ldr	r5, [pc, #144]	@ 8a68 <uart_put_uint+0xa8>
    89d4:	e24dd014 	sub	sp, sp, #20
    89d8:	e28dc003 	add	ip, sp, #3
    89dc:	e1a0e000 	mov	lr, r0
    89e0:	e1a01002 	mov	r1, r2
    89e4:	e2822001 	add	r2, r2, #1
    89e8:	e352000a 	cmp	r2, #10
    89ec:	135e0009 	cmpne	lr, #9
    89f0:	e0834095 	umull	r4, r3, r5, r0
    89f4:	e1a031a3 	lsr	r3, r3, #3
    89f8:	e0834103 	add	r4, r3, r3, lsl #2
    89fc:	e0400084 	sub	r0, r0, r4, lsl #1
    8a00:	e2804030 	add	r4, r0, #48	@ 0x30
    8a04:	e5ec4001 	strb	r4, [ip, #1]!
    8a08:	e1a00003 	mov	r0, r3
    8a0c:	8afffff2 	bhi	89dc <uart_put_uint+0x1c>
    8a10:	e28de004 	add	lr, sp, #4
    8a14:	e59f2050 	ldr	r2, [pc, #80]	@ 8a6c <uart_put_uint+0xac>
    8a18:	e08e1001 	add	r1, lr, r1
    8a1c:	e1a0c001 	mov	ip, r1
    8a20:	e5d10000 	ldrb	r0, [r1]
    8a24:	e2411001 	sub	r1, r1, #1
    8a28:	e5923054 	ldr	r3, [r2, #84]	@ 0x54
    8a2c:	e3130020 	tst	r3, #32
    8a30:	0afffffc 	beq	8a28 <uart_put_uint+0x68>
    8a34:	e15e000c 	cmp	lr, ip
    8a38:	e5820040 	str	r0, [r2, #64]	@ 0x40
    8a3c:	1afffff6 	bne	8a1c <uart_put_uint+0x5c>
    8a40:	e28dd014 	add	sp, sp, #20
    8a44:	e8bd4030 	pop	{r4, r5, lr}
    8a48:	e12fff1e 	bx	lr
    8a4c:	e59f2018 	ldr	r2, [pc, #24]	@ 8a6c <uart_put_uint+0xac>
    8a50:	e5923054 	ldr	r3, [r2, #84]	@ 0x54
    8a54:	e3130020 	tst	r3, #32
    8a58:	0afffffc 	beq	8a50 <uart_put_uint+0x90>
    8a5c:	e3a03030 	mov	r3, #48	@ 0x30
    8a60:	e5823040 	str	r3, [r2, #64]	@ 0x40
    8a64:	e12fff1e 	bx	lr
    8a68:	cccccccd 	stclgt	12, cr12, [ip], {205}	@ 0xcd
    8a6c:	20215000 	eorcs	r5, r1, r0

00008a70 <uart_try_recv>:
    8a70:	e59f3014 	ldr	r3, [pc, #20]	@ 8a8c <uart_try_recv+0x1c>
    8a74:	e5932054 	ldr	r2, [r3, #84]	@ 0x54
    8a78:	e3120001 	tst	r2, #1
    8a7c:	15930040 	ldrne	r0, [r3, #64]	@ 0x40
    8a80:	120000ff 	andne	r0, r0, #255	@ 0xff
    8a84:	03e00000 	mvneq	r0, #0
    8a88:	e12fff1e 	bx	lr
    8a8c:	20215000 	eorcs	r5, r1, r0

00008a90 <uart_read_line_blocking>:
    8a90:	e92d4070 	push	{r4, r5, r6, lr}
    8a94:	e1a04000 	mov	r4, r0
    8a98:	e59fc080 	ldr	ip, [pc, #128]	@ 8b20 <uart_read_line_blocking+0x90>
    8a9c:	e59c3054 	ldr	r3, [ip, #84]	@ 0x54
    8aa0:	e2133001 	ands	r3, r3, #1
    8aa4:	01a00003 	moveq	r0, r3
    8aa8:	05c43000 	strbeq	r3, [r4]
    8aac:	0a000015 	beq	8b08 <uart_read_line_blocking+0x78>
    8ab0:	e1a06004 	mov	r6, r4
    8ab4:	e3a00001 	mov	r0, #1
    8ab8:	e59c3040 	ldr	r3, [ip, #64]	@ 0x40
    8abc:	e5c43000 	strb	r3, [r4]
    8ac0:	e2415001 	sub	r5, r1, #1
    8ac4:	e1500005 	cmp	r0, r5
    8ac8:	aa00000c 	bge	8b00 <uart_read_line_blocking+0x70>
    8acc:	e3a03000 	mov	r3, #0
    8ad0:	e59c1054 	ldr	r1, [ip, #84]	@ 0x54
    8ad4:	e3110001 	tst	r1, #1
    8ad8:	e283e001 	add	lr, r3, #1
    8adc:	0a00000b 	beq	8b10 <uart_read_line_blocking+0x80>
    8ae0:	e1530002 	cmp	r3, r2
    8ae4:	e59c3040 	ldr	r3, [ip, #64]	@ 0x40
    8ae8:	2a000004 	bcs	8b00 <uart_read_line_blocking+0x70>
    8aec:	e5e63001 	strb	r3, [r6, #1]!
    8af0:	e20330ff 	and	r3, r3, #255	@ 0xff
    8af4:	e353000a 	cmp	r3, #10
    8af8:	e2800001 	add	r0, r0, #1
    8afc:	1afffff0 	bne	8ac4 <uart_read_line_blocking+0x34>
    8b00:	e3a03000 	mov	r3, #0
    8b04:	e7c43000 	strb	r3, [r4, r0]
    8b08:	e8bd4070 	pop	{r4, r5, r6, lr}
    8b0c:	e12fff1e 	bx	lr
    8b10:	e1530002 	cmp	r3, r2
    8b14:	2afffff9 	bcs	8b00 <uart_read_line_blocking+0x70>
    8b18:	e1a0300e 	mov	r3, lr
    8b1c:	eaffffeb 	b	8ad0 <uart_read_line_blocking+0x40>
    8b20:	20215000 	eorcs	r5, r1, r0

00008b24 <gpio_init>:
    8b24:	e3500009 	cmp	r0, #9
    8b28:	ca000009 	bgt	8b54 <gpio_init+0x30>
    8b2c:	e3a0c007 	mov	ip, #7
    8b30:	e59f3120 	ldr	r3, [pc, #288]	@ 8c58 <gpio_init+0x134>
    8b34:	e5932000 	ldr	r2, [r3]
    8b38:	e0800080 	add	r0, r0, r0, lsl #1
    8b3c:	e1c2201c 	bic	r2, r2, ip, lsl r0
    8b40:	e5832000 	str	r2, [r3]
    8b44:	e5932000 	ldr	r2, [r3]
    8b48:	e1821011 	orr	r1, r2, r1, lsl r0
    8b4c:	e5831000 	str	r1, [r3]
    8b50:	e12fff1e 	bx	lr
    8b54:	e3500013 	cmp	r0, #19
    8b58:	ca00000a 	bgt	8b88 <gpio_init+0x64>
    8b5c:	e3a0c007 	mov	ip, #7
    8b60:	e59f30f0 	ldr	r3, [pc, #240]	@ 8c58 <gpio_init+0x134>
    8b64:	e240000a 	sub	r0, r0, #10
    8b68:	e5932004 	ldr	r2, [r3, #4]
    8b6c:	e0800080 	add	r0, r0, r0, lsl #1
    8b70:	e1c2201c 	bic	r2, r2, ip, lsl r0
    8b74:	e5832004 	str	r2, [r3, #4]
    8b78:	e5932004 	ldr	r2, [r3, #4]
    8b7c:	e1822011 	orr	r2, r2, r1, lsl r0
    8b80:	e5832004 	str	r2, [r3, #4]
    8b84:	e12fff1e 	bx	lr
    8b88:	e350001d 	cmp	r0, #29
    8b8c:	da00000c 	ble	8bc4 <gpio_init+0xa0>
    8b90:	e3500027 	cmp	r0, #39	@ 0x27
    8b94:	ca000015 	bgt	8bf0 <gpio_init+0xcc>
    8b98:	e3a0c007 	mov	ip, #7
    8b9c:	e59f30b4 	ldr	r3, [pc, #180]	@ 8c58 <gpio_init+0x134>
    8ba0:	e240001e 	sub	r0, r0, #30
    8ba4:	e593200c 	ldr	r2, [r3, #12]
    8ba8:	e0800080 	add	r0, r0, r0, lsl #1
    8bac:	e1c2201c 	bic	r2, r2, ip, lsl r0
    8bb0:	e583200c 	str	r2, [r3, #12]
    8bb4:	e593200c 	ldr	r2, [r3, #12]
    8bb8:	e1822011 	orr	r2, r2, r1, lsl r0
    8bbc:	e583200c 	str	r2, [r3, #12]
    8bc0:	e12fff1e 	bx	lr
    8bc4:	e3a0c007 	mov	ip, #7
    8bc8:	e59f3088 	ldr	r3, [pc, #136]	@ 8c58 <gpio_init+0x134>
    8bcc:	e2400014 	sub	r0, r0, #20
    8bd0:	e5932008 	ldr	r2, [r3, #8]
    8bd4:	e0800080 	add	r0, r0, r0, lsl #1
    8bd8:	e1c2201c 	bic	r2, r2, ip, lsl r0
    8bdc:	e5832008 	str	r2, [r3, #8]
    8be0:	e5932008 	ldr	r2, [r3, #8]
    8be4:	e1822011 	orr	r2, r2, r1, lsl r0
    8be8:	e5832008 	str	r2, [r3, #8]
    8bec:	e12fff1e 	bx	lr
    8bf0:	e3500031 	cmp	r0, #49	@ 0x31
    8bf4:	da00000c 	ble	8c2c <gpio_init+0x108>
    8bf8:	e350003b 	cmp	r0, #59	@ 0x3b
    8bfc:	c12fff1e 	bxgt	lr
    8c00:	e3a0c007 	mov	ip, #7
    8c04:	e59f304c 	ldr	r3, [pc, #76]	@ 8c58 <gpio_init+0x134>
    8c08:	e2400032 	sub	r0, r0, #50	@ 0x32
    8c0c:	e5932014 	ldr	r2, [r3, #20]
    8c10:	e0800080 	add	r0, r0, r0, lsl #1
    8c14:	e1c2201c 	bic	r2, r2, ip, lsl r0
    8c18:	e5832014 	str	r2, [r3, #20]
    8c1c:	e5932014 	ldr	r2, [r3, #20]
    8c20:	e1822011 	orr	r2, r2, r1, lsl r0
    8c24:	e5832014 	str	r2, [r3, #20]
    8c28:	e12fff1e 	bx	lr
    8c2c:	e3a0c007 	mov	ip, #7
    8c30:	e59f3020 	ldr	r3, [pc, #32]	@ 8c58 <gpio_init+0x134>
    8c34:	e2400028 	sub	r0, r0, #40	@ 0x28
    8c38:	e5932010 	ldr	r2, [r3, #16]
    8c3c:	e0800080 	add	r0, r0, r0, lsl #1
    8c40:	e1c2201c 	bic	r2, r2, ip, lsl r0
    8c44:	e5832010 	str	r2, [r3, #16]
    8c48:	e5932010 	ldr	r2, [r3, #16]
    8c4c:	e1822011 	orr	r2, r2, r1, lsl r0
    8c50:	e5832010 	str	r2, [r3, #16]
    8c54:	e12fff1e 	bx	lr
    8c58:	20200000 	eorcs	r0, r0, r0

00008c5c <gpio_write>:
    8c5c:	e350001f 	cmp	r0, #31
    8c60:	e3a03001 	mov	r3, #1
    8c64:	ca000005 	bgt	8c80 <gpio_write+0x24>
    8c68:	e59f202c 	ldr	r2, [pc, #44]	@ 8c9c <gpio_write+0x40>
    8c6c:	e3510000 	cmp	r1, #0
    8c70:	e1a03013 	lsl	r3, r3, r0
    8c74:	1582301c 	strne	r3, [r2, #28]
    8c78:	05823028 	streq	r3, [r2, #40]	@ 0x28
    8c7c:	e12fff1e 	bx	lr
    8c80:	e59f2014 	ldr	r2, [pc, #20]	@ 8c9c <gpio_write+0x40>
    8c84:	e2400020 	sub	r0, r0, #32
    8c88:	e3510000 	cmp	r1, #0
    8c8c:	e1a03013 	lsl	r3, r3, r0
    8c90:	15823020 	strne	r3, [r2, #32]
    8c94:	0582302c 	streq	r3, [r2, #44]	@ 0x2c
    8c98:	e12fff1e 	bx	lr
    8c9c:	20200000 	eorcs	r0, r0, r0

00008ca0 <delay>:
    8ca0:	e3500000 	cmp	r0, #0
    8ca4:	d12fff1e 	bxle	lr
    8ca8:	e3a03000 	mov	r3, #0
    8cac:	e1a00000 	nop			@ (mov r0, r0)
    8cb0:	e2833001 	add	r3, r3, #1
    8cb4:	e1500003 	cmp	r0, r3
    8cb8:	1afffffb 	bne	8cac <delay+0xc>
    8cbc:	e12fff1e 	bx	lr

00008cc0 <delay_us>:
    8cc0:	e0600180 	rsb	r0, r0, r0, lsl #3
    8cc4:	e3500000 	cmp	r0, #0
    8cc8:	d12fff1e 	bxle	lr
    8ccc:	e3a03000 	mov	r3, #0
    8cd0:	e1a00000 	nop			@ (mov r0, r0)
    8cd4:	e2833001 	add	r3, r3, #1
    8cd8:	e1500003 	cmp	r0, r3
    8cdc:	1afffffb 	bne	8cd0 <delay_us+0x10>
    8ce0:	e12fff1e 	bx	lr

00008ce4 <strlen>:
    8ce4:	e1a03000 	mov	r3, r0
    8ce8:	e4d30001 	ldrb	r0, [r3], #1
    8cec:	e3500000 	cmp	r0, #0
    8cf0:	012fff1e 	bxeq	lr
    8cf4:	e3a00000 	mov	r0, #0
    8cf8:	e4d32001 	ldrb	r2, [r3], #1
    8cfc:	e3520000 	cmp	r2, #0
    8d00:	e2800001 	add	r0, r0, #1
    8d04:	1afffffb 	bne	8cf8 <strlen+0x14>
    8d08:	e12fff1e 	bx	lr

00008d0c <strcmp>:
    8d0c:	e5d03000 	ldrb	r3, [r0]
    8d10:	e3530000 	cmp	r3, #0
    8d14:	05d12000 	ldrbeq	r2, [r1]
    8d18:	1a000003 	bne	8d2c <strcmp+0x20>
    8d1c:	ea000006 	b	8d3c <strcmp+0x30>
    8d20:	e5f03001 	ldrb	r3, [r0, #1]!
    8d24:	e3530000 	cmp	r3, #0
    8d28:	0a000005 	beq	8d44 <strcmp+0x38>
    8d2c:	e1a0c001 	mov	ip, r1
    8d30:	e4d12001 	ldrb	r2, [r1], #1
    8d34:	e1520003 	cmp	r2, r3
    8d38:	0afffff8 	beq	8d20 <strcmp+0x14>
    8d3c:	e0430002 	sub	r0, r3, r2
    8d40:	e12fff1e 	bx	lr
    8d44:	e5dc2001 	ldrb	r2, [ip, #1]
    8d48:	e0430002 	sub	r0, r3, r2
    8d4c:	e12fff1e 	bx	lr

00008d50 <strncpy>:
    8d50:	e3520000 	cmp	r2, #0
    8d54:	012fff1e 	bxeq	lr
    8d58:	e92d4010 	push	{r4, lr}
    8d5c:	e2404001 	sub	r4, r0, #1
    8d60:	e1a0e004 	mov	lr, r4
    8d64:	e3a03000 	mov	r3, #0
    8d68:	e2411001 	sub	r1, r1, #1
    8d6c:	ea000003 	b	8d80 <strncpy+0x30>
    8d70:	e2833001 	add	r3, r3, #1
    8d74:	e1520003 	cmp	r2, r3
    8d78:	e5eec001 	strb	ip, [lr, #1]!
    8d7c:	0a00000a 	beq	8dac <strncpy+0x5c>
    8d80:	e5f1c001 	ldrb	ip, [r1, #1]!
    8d84:	e35c0000 	cmp	ip, #0
    8d88:	1afffff8 	bne	8d70 <strncpy+0x20>
    8d8c:	e1520003 	cmp	r2, r3
    8d90:	9a000005 	bls	8dac <strncpy+0x5c>
    8d94:	e2433001 	sub	r3, r3, #1
    8d98:	e0803003 	add	r3, r0, r3
    8d9c:	e0842002 	add	r2, r4, r2
    8da0:	e5e3c001 	strb	ip, [r3, #1]!
    8da4:	e1530002 	cmp	r3, r2
    8da8:	1afffffc 	bne	8da0 <strncpy+0x50>
    8dac:	e8bd4010 	pop	{r4, lr}
    8db0:	e12fff1e 	bx	lr

00008db4 <strtoul>:
    8db4:	e5d03000 	ldrb	r3, [r0]
    8db8:	e1a0c000 	mov	ip, r0
    8dbc:	e2430030 	sub	r0, r3, #48	@ 0x30
    8dc0:	e3500009 	cmp	r0, #9
    8dc4:	8a00000b 	bhi	8df8 <strtoul+0x44>
    8dc8:	e3a00000 	mov	r0, #0
    8dcc:	e52de004 	push	{lr}		@ (str lr, [sp, #-4]!)
    8dd0:	e0203092 	mla	r0, r2, r0, r3
    8dd4:	e5fc3001 	ldrb	r3, [ip, #1]!
    8dd8:	e243e030 	sub	lr, r3, #48	@ 0x30
    8ddc:	e35e0009 	cmp	lr, #9
    8de0:	e2400030 	sub	r0, r0, #48	@ 0x30
    8de4:	9afffff9 	bls	8dd0 <strtoul+0x1c>
    8de8:	e3510000 	cmp	r1, #0
    8dec:	1581c000 	strne	ip, [r1]
    8df0:	e49de004 	pop	{lr}		@ (ldr lr, [sp], #4)
    8df4:	e12fff1e 	bx	lr
    8df8:	e3510000 	cmp	r1, #0
    8dfc:	e3a00000 	mov	r0, #0
    8e00:	1581c000 	strne	ip, [r1]
    8e04:	e12fff1e 	bx	lr

Disassembly of section .rodata.str1.4:

00008e08 <.rodata.str1.4>:
    8e08:	2a2a2a2a 	bcs	a936b8 <Intervals+0xa8a570>
    8e0c:	2a2a2a2a 	bcs	a936bc <Intervals+0xa8a574>
    8e10:	2a2a2a2a 	bcs	a936c0 <Intervals+0xa8a578>
    8e14:	75442a2a 	strbvc	r2, [r4, #-2602]	@ 0xfffff5d6
    8e18:	50206c61 	eorpl	r6, r0, r1, ror #24
    8e1c:	65736c75 	ldrbvs	r6, [r3, #-3189]!	@ 0xfffff38b
    8e20:	6e654720 	cdpvs	7, 6, cr4, cr5, cr0, {1}
    8e24:	74617265 	strbtvc	r7, [r1], #-613	@ 0xfffffd9b
    8e28:	2a2a726f 	bcs	aa57ec <Intervals+0xa9c6a4>
    8e2c:	2a2a2a2a 	bcs	a936dc <Intervals+0xa8a594>
    8e30:	2a2a2a2a 	bcs	a936e0 <Intervals+0xa8a598>
    8e34:	2a2a2a2a 	bcs	a936e4 <Intervals+0xa8a59c>
    8e38:	00000000 	andeq	r0, r0, r0
    8e3c:	7355203e 	cmpvc	r5, #62	@ 0x3e
    8e40:	3a656761 	bcc	1962bcc <Intervals+0x1959a84>
    8e44:	6e655320 	cdpvs	3, 6, cr5, cr5, cr0, {1}
    8e48:	534a2064 	cmppl	sl, #100	@ 0x64
    8e4c:	73204e4f 			@ <UNDEFINED> instruction: 0x73204e4f
    8e50:	6e697274 	mcrvs	2, 3, r7, cr9, cr4, {3}
    8e54:	66202c67 	strtvs	r2, [r0], -r7, ror #24
    8e58:	6520726f 	strvs	r7, [r0, #-623]!	@ 0xfffffd91
    8e5c:	7b20672e 	blvc	822b1c <Intervals+0x8199d4>
    8e60:	6c757022 	ldclvs	0, cr7, [r5], #-136	@ 0xffffff78
    8e64:	6e496573 	mcrvs	5, 2, r6, cr9, cr3, {3}
    8e68:	76726574 			@ <UNDEFINED> instruction: 0x76726574
    8e6c:	3a226c61 	bcc	8a3ff8 <Intervals+0x89aeb0>
    8e70:	30303120 	eorscc	r3, r0, r0, lsr #2
    8e74:	7022202c 	eorvc	r2, r2, ip, lsr #32
    8e78:	65736c75 	ldrbvs	r6, [r3, #-3189]!	@ 0xfffff38b
    8e7c:	74646957 	strbtvc	r6, [r4], #-2391	@ 0xfffff6a9
    8e80:	3a223168 	bcc	895428 <Intervals+0x88c2e0>
    8e84:	2c303120 	ldccs	1, cr3, [r0], #-128	@ 0xffffff80
    8e88:	6e692220 	cdpvs	2, 6, cr2, cr9, cr0, {1}
    8e8c:	50726574 	rsbspl	r6, r2, r4, ror r5
    8e90:	65736c75 	ldrbvs	r6, [r3, #-3189]!	@ 0xfffff38b
    8e94:	616c6544 	cmnvs	ip, r4, asr #10
    8e98:	203a2279 	eorscs	r2, sl, r9, ror r2
    8e9c:	2c303032 	ldccs	0, cr3, [r0], #-200	@ 0xffffff38
    8ea0:	75702220 	ldrbvc	r2, [r0, #-544]!	@ 0xfffffde0
    8ea4:	5765736c 	strbpl	r7, [r5, -ip, ror #6]!
    8ea8:	68746469 	ldmdavs	r4!, {r0, r3, r5, r6, sl, sp, lr}^
    8eac:	203a2232 	eorscs	r2, sl, r2, lsr r2
    8eb0:	2e7d3031 	mrccs	0, 3, r3, cr13, cr1, {1}
    8eb4:	00000000 	andeq	r0, r0, r0
    8eb8:	6156203e 	cmpvs	r6, lr, lsr r0
    8ebc:	7365756c 	cmnvc	r5, #108, 10	@ 0x1b000000
    8ec0:	65726120 	ldrbvs	r6, [r2, #-288]!	@ 0xfffffee0
    8ec4:	206e6920 	rsbcs	r6, lr, r0, lsr #18
    8ec8:	7263696d 	rsbvc	r6, r3, #1785856	@ 0x1b4000
    8ecc:	6365736f 	cmnvs	r5, #-1140850687	@ 0xbc000001
    8ed0:	73646e6f 	cmnvc	r4, #1776	@ 0x6f0
    8ed4:	6f6e2820 	svcvs	0x006e2820
    8ed8:	203a6574 	eorscs	r6, sl, r4, ror r5
    8edc:	33505345 	cmpcc	r0, #335544321	@ 0x14000001
    8ee0:	64612032 	strbtvs	r2, [r1], #-50	@ 0xffffffce
    8ee4:	32207364 	eorcc	r7, r0, #100, 6	@ 0x90000001
    8ee8:	65737530 	ldrbvs	r7, [r3, #-1328]!	@ 0xfffffad0
    8eec:	65702063 	ldrbvs	r2, [r0, #-99]!	@ 0xffffff9d
    8ef0:	6e692072 	mcrvs	0, 3, r2, cr9, cr2, {3}
    8ef4:	76726574 			@ <UNDEFINED> instruction: 0x76726574
    8ef8:	2e296c61 	cdpcs	12, 2, cr6, cr9, cr1, {3}
    8efc:	69735520 	ldmdbvs	r3!, {r5, r8, sl, ip, lr}^
    8f00:	6f20676e 	svcvs	0x0020676e
    8f04:	75707475 	ldrbvc	r7, [r0, #-1141]!	@ 0xfffffb8b
    8f08:	6f702074 	svcvs	0x00702074
    8f0c:	203a7472 	eorscs	r7, sl, r2, ror r4
    8f10:	00000000 	andeq	r0, r0, r0
    8f14:	6544203e 	strbvs	r2, [r4, #-62]	@ 0xffffffc2
    8f18:	6c756166 	ldclvs	1, cr6, [r5], #-408	@ 0xfffffe68
    8f1c:	20202074 	eorcs	r2, r0, r4, ror r0
    8f20:	20202020 	eorcs	r2, r0, r0, lsr #32
    8f24:	5f5f5f20 	svcpl	0x005f5f20
    8f28:	5f5f5f5f 	svcpl	0x005f5f5f
    8f2c:	5f5f5f5f 	svcpl	0x005f5f5f
    8f30:	20205f5f 	eorcs	r5, r0, pc, asr pc
    8f34:	20202020 	eorcs	r2, r0, r0, lsr #32
    8f38:	20202020 	eorcs	r2, r0, r0, lsr #32
    8f3c:	20202020 	eorcs	r2, r0, r0, lsr #32
    8f40:	20202020 	eorcs	r2, r0, r0, lsr #32
    8f44:	5f5f5f20 	svcpl	0x005f5f20
    8f48:	5f5f5f5f 	svcpl	0x005f5f5f
    8f4c:	5f5f5f5f 	svcpl	0x005f5f5f
    8f50:	0000005f 	andeq	r0, r0, pc, asr r0
    8f54:	7570203e 	ldrbvc	r2, [r0, #-62]!	@ 0xffffffc2
    8f58:	4965736c 	stmdbmi	r5!, {r2, r3, r5, r6, r8, r9, ip, sp, lr}^
    8f5c:	7265746e 	rsbvc	r7, r5, #1845493760	@ 0x6e000000
    8f60:	206c6176 	rsbcs	r6, ip, r6, ror r1
    8f64:	7570207c 	ldrbvc	r2, [r0, #-124]!	@ 0xffffff84
    8f68:	5765736c 	strbpl	r7, [r5, -ip, ror #6]!
    8f6c:	68746469 	ldmdavs	r4!, {r0, r3, r5, r6, sl, sp, lr}^
    8f70:	207c2031 	rsbscs	r2, ip, r1, lsr r0
    8f74:	65746e69 	ldrbvs	r6, [r4, #-3689]!	@ 0xfffff197
    8f78:	6c755072 	ldclvs	0, cr5, [r5], #-456	@ 0xfffffe38
    8f7c:	65446573 	strbvs	r6, [r4, #-1395]	@ 0xfffffa8d
    8f80:	2079616c 	rsbscs	r6, r9, ip, ror #2
    8f84:	7570207c 	ldrbvc	r2, [r0, #-124]!	@ 0xffffff84
    8f88:	5765736c 	strbpl	r7, [r5, -ip, ror #6]!
    8f8c:	32687469 	rsbcc	r7, r8, #1761607680	@ 0x69000000
    8f90:	70207c20 	eorvc	r7, r0, r0, lsr #24
    8f94:	65736c75 	ldrbvs	r6, [r3, #-3189]!	@ 0xfffff38b
    8f98:	65746e49 	ldrbvs	r6, [r4, #-3657]!	@ 0xfffff1b7
    8f9c:	6c617672 	stclvs	6, cr7, [r1], #-456	@ 0xfffffe38
    8fa0:	00000000 	andeq	r0, r0, r0
    8fa4:	5f5f203e 	svcpl	0x005f203e
    8fa8:	3035205f 	eorscc	r2, r5, pc, asr r0
    8fac:	5f5f5f30 	svcpl	0x005f5f30
    8fb0:	5f5f5f5f 	svcpl	0x005f5f5f
    8fb4:	20202020 	eorcs	r2, r0, r0, lsr #32
    8fb8:	30372020 	eorscc	r2, r7, r0, lsr #32
    8fbc:	20202020 	eorcs	r2, r0, r0, lsr #32
    8fc0:	5f202020 	svcpl	0x00202020
    8fc4:	5f5f5f5f 	svcpl	0x005f5f5f
    8fc8:	20303320 	eorscs	r3, r0, r0, lsr #6
    8fcc:	5f5f5f5f 	svcpl	0x005f5f5f
    8fd0:	5f5f5f5f 	svcpl	0x005f5f5f
    8fd4:	20202020 	eorcs	r2, r0, r0, lsr #32
    8fd8:	30352020 	eorscc	r2, r5, r0, lsr #32
    8fdc:	20202020 	eorcs	r2, r0, r0, lsr #32
    8fe0:	5f5f2020 	svcpl	0x005f2020
    8fe4:	205f5f5f 	subscs	r5, pc, pc, asr pc	@ <UNPREDICTABLE>
    8fe8:	20303035 	eorscs	r3, r0, r5, lsr r0
    8fec:	5f5f5f5f 	svcpl	0x005f5f5f
    8ff0:	00000000 	andeq	r0, r0, r0
    8ff4:	50203e0a 	eorpl	r3, r0, sl, lsl #28
    8ff8:	69737261 	ldmdbvs	r3!, {r0, r5, r6, r9, ip, sp, lr}^
    8ffc:	4a20676e 	bmi	822dbc <Intervals+0x819c74>
    9000:	204e4f53 	subcs	r4, lr, r3, asr pc
    9004:	69727473 	ldmdbvs	r2!, {r0, r1, r4, r5, r6, sl, ip, sp, lr}^
    9008:	2e2e676e 	cdpcs	7, 2, cr6, cr14, cr14, {3}
    900c:	00000a2e 	andeq	r0, r0, lr, lsr #20
    9010:	5252453e 	subspl	r4, r2, #260046848	@ 0xf800000
    9014:	72615020 	rsbvc	r5, r1, #32
    9018:	676e6973 			@ <UNDEFINED> instruction: 0x676e6973
    901c:	4f534a20 	svcmi	0x00534a20
    9020:	00203a4e 	eoreq	r3, r0, lr, asr #20
    9024:	20746f4e 	rsbscs	r6, r4, lr, asr #30
    9028:	756f6e65 	strbvc	r6, [pc, #-3685]!	@ 81cb <jsmn_parse+0x1ab>
    902c:	74206867 	strtvc	r6, [r0], #-2151	@ 0xfffff799
    9030:	6e656b6f 	vnmulvs.f64	d22, d5, d31
    9034:	65772073 	ldrbvs	r2, [r7, #-115]!	@ 0xffffff8d
    9038:	70206572 	eorvc	r6, r0, r2, ror r5
    903c:	69766f72 	ldmdbvs	r6!, {r1, r4, r5, r6, r8, r9, sl, fp, sp, lr}^
    9040:	2e646564 	cdpcs	5, 6, cr6, cr4, cr4, {3}
    9044:	00000000 	andeq	r0, r0, r0
    9048:	61766e49 	cmnvs	r6, r9, asr #28
    904c:	2064696c 	rsbcs	r6, r4, ip, ror #18
    9050:	72616863 	rsbvc	r6, r1, #6488064	@ 0x630000
    9054:	65746361 	ldrbvs	r6, [r4, #-865]!	@ 0xfffffc9f
    9058:	6e692072 	mcrvs	0, 3, r2, cr9, cr2, {3}
    905c:	4f534a20 	svcmi	0x00534a20
    9060:	7473204e 	ldrbtvc	r2, [r3], #-78	@ 0xffffffb2
    9064:	676e6972 			@ <UNDEFINED> instruction: 0x676e6972
    9068:	0000002e 	andeq	r0, r0, lr, lsr #32
    906c:	20656854 	rsbcs	r6, r5, r4, asr r8
    9070:	69727473 	ldmdbvs	r2!, {r0, r1, r4, r5, r6, sl, ip, sp, lr}^
    9074:	6920676e 	stmdbvs	r0!, {r1, r2, r3, r5, r6, r8, r9, sl, sp, lr}
    9078:	6f6e2073 	svcvs	0x006e2073
    907c:	20612074 	rsbcs	r2, r1, r4, ror r0
    9080:	6c6c7566 	stclvs	5, cr7, [ip], #-408	@ 0xfffffe68
    9084:	4f534a20 	svcmi	0x00534a20
    9088:	6170204e 	cmnvs	r0, lr, asr #32
    908c:	74656b63 	strbtvc	r6, [r5], #-2915	@ 0xfffff49d
    9090:	0000002e 	andeq	r0, r0, lr, lsr #32
    9094:	6e6b6e55 	mcrvs	14, 3, r6, cr11, cr5, {2}
    9098:	206e776f 	rsbcs	r7, lr, pc, ror #14
    909c:	6f727265 	svcvs	0x00727265
    90a0:	00002e72 	andeq	r2, r0, r2, ror lr
    90a4:	5252453e 	subspl	r4, r2, #260046848	@ 0xf800000
    90a8:	72615020 	rsbvc	r5, r1, #32
    90ac:	676e6973 			@ <UNDEFINED> instruction: 0x676e6973
    90b0:	4f534a20 	svcmi	0x00534a20
    90b4:	54203a4e 	strtpl	r3, [r0], #-2638	@ 0xfffff5b2
    90b8:	74206568 	strtvc	r6, [r0], #-1384	@ 0xfffffa98
    90bc:	6c2d706f 	stcvs	0, cr7, [sp], #-444	@ 0xfffffe44
    90c0:	6c657665 	stclvs	6, cr7, [r5], #-404	@ 0xfffffe6c
    90c4:	656c6520 	strbvs	r6, [ip, #-1312]!	@ 0xfffffae0
    90c8:	746e656d 	strbtvc	r6, [lr], #-1389	@ 0xfffffa93
    90cc:	20736920 	rsbscs	r6, r3, r0, lsr #18
    90d0:	20746f6e 	rsbscs	r6, r4, lr, ror #30
    90d4:	6f206e61 	svcvs	0x00206e61
    90d8:	63656a62 	cmnvs	r5, #401408	@ 0x62000
    90dc:	00002e74 	andeq	r2, r0, r4, ror lr
    90e0:	736c7570 	cmnvc	ip, #112, 10	@ 0x1c000000
    90e4:	746e4965 	strbtvc	r4, [lr], #-2405	@ 0xfffff69b
    90e8:	61767265 	cmnvs	r6, r5, ror #4
    90ec:	0000006c 	andeq	r0, r0, ip, rrx
    90f0:	736c7570 	cmnvc	ip, #112, 10	@ 0x1c000000
    90f4:	64695765 	strbtvs	r5, [r9], #-1893	@ 0xfffff89b
    90f8:	00316874 	eorseq	r6, r1, r4, ror r8
    90fc:	65746e69 	ldrbvs	r6, [r4, #-3689]!	@ 0xfffff197
    9100:	6c755072 	ldclvs	0, cr5, [r5], #-456	@ 0xfffffe38
    9104:	65446573 	strbvs	r6, [r4, #-1395]	@ 0xfffffa8d
    9108:	0079616c 	rsbseq	r6, r9, ip, ror #2
    910c:	736c7570 	cmnvc	ip, #112, 10	@ 0x1c000000
    9110:	64695765 	strbtvs	r5, [r9], #-1893	@ 0xfffff89b
    9114:	00326874 	eorseq	r6, r2, r4, ror r8
    9118:	5252453e 	subspl	r4, r2, #260046848	@ 0xf800000
    911c:	72615020 	rsbvc	r5, r1, #32
    9120:	676e6973 			@ <UNDEFINED> instruction: 0x676e6973
    9124:	4f534a20 	svcmi	0x00534a20
    9128:	55203a4e 	strpl	r3, [r0, #-2638]!	@ 0xfffff5b2
    912c:	6f6e6b6e 	svcvs	0x006e6b6e
    9130:	6b206e77 	blvs	824b14 <Intervals+0x81b9cc>
    9134:	69207965 	stmdbvs	r0!, {r0, r2, r5, r6, r8, fp, ip, sp, lr}
    9138:	534a206e 	cmppl	sl, #110	@ 0x6e
    913c:	6f204e4f 	svcvs	0x00204e4f
    9140:	63656a62 	cmnvs	r5, #401408	@ 0x62000
    9144:	Address 0x9144 is out of bounds.


Disassembly of section .data:

00009148 <Intervals>:
    9148:	000001f4 			@ <UNDEFINED> instruction: 0x000001f4
    914c:	00000046 	andeq	r0, r0, r6, asr #32
    9150:	0000001e 	andeq	r0, r0, lr, lsl r0
    9154:	00000032 	andeq	r0, r0, r2, lsr r0

Disassembly of section .ARM.attributes:

00000000 <.ARM.attributes>:
   0:	00002a41 	andeq	r2, r0, r1, asr #20
   4:	61656100 	cmnvs	r5, r0, lsl #2
   8:	01006962 	tsteq	r0, r2, ror #18
   c:	00000020 	andeq	r0, r0, r0, lsr #32
  10:	4d524105 	ldclmi	1, cr4, [r2, #-20]	@ 0xffffffec
  14:	54347620 	ldrtpl	r7, [r4], #-1568	@ 0xfffff9e0
  18:	08020600 	stmdaeq	r2, {r9, sl}
  1c:	12010901 	andne	r0, r1, #16384	@ 0x4000
  20:	15011404 	strne	r1, [r1, #-1028]	@ 0xfffffbfc
  24:	18031701 	stmdane	r3, {r0, r8, r9, sl, ip}
  28:	Address 0x28 is out of bounds.


Disassembly of section .comment:

00000000 <.comment>:
   0:	3a434347 	bcc	10d0d24 <Intervals+0x10c7bdc>
   4:	72412820 	subvc	r2, r1, #32, 16	@ 0x200000
   8:	4e47206d 	cdpmi	0, 4, cr2, cr7, cr13, {3}
   c:	6f542055 	svcvs	0x00542055
  10:	68636c6f 	stmdavs	r3!, {r0, r1, r2, r3, r5, r6, sl, fp, sp, lr}^
  14:	206e6961 	rsbcs	r6, lr, r1, ror #18
  18:	322e3431 	eorcc	r3, lr, #822083584	@ 0x31000000
  1c:	6c65522e 	stclvs	2, cr5, [r5], #-184	@ 0xffffff48
  20:	42282031 	eormi	r2, r8, #49	@ 0x31
  24:	646c6975 	strbtvs	r6, [ip], #-2421	@ 0xfffff68b
  28:	6d726120 	ldclvs	1, cr6, [r2, #-128]!	@ 0xffffff80
  2c:	2e34312d 	cdpcs	1, 3, cr3, cr4, cr13, {1}
  30:	29293235 	stmdbcs	r9!, {r0, r2, r4, r5, r9, ip, sp}
  34:	2e343120 	cdpcs	1, 3, cr3, cr4, cr0, {1}
  38:	20312e32 	eorscs	r2, r1, r2, lsr lr
  3c:	34323032 	ldrtcc	r3, [r2], #-50	@ 0xffffffce
  40:	39313131 	ldmdbcc	r1!, {r0, r4, r5, r8, ip, sp}
	...
